(lp0
(lp1
I200
aI592
aa(lp2
I939
aI211
aa(lp3
I435
aI217
aa(lp4
I532
aI176
aa(lp5
I704
aI505
aa(lp6
I664
aI450
aa(lp7
I2
aI594
aa(lp8
I494
aI152
aa(lp9
I667
aI409
aa(lp10
I848
aI52
aa(lp11
I461
aI613
aa(lp12
I612
aI202
aa(lp13
I103
aI168
aa(lp14
I602
aI170
aa(lp15
I607
aI569
aa(lp16
I194
aI574
aa(lp17
I775
aI107
aa(lp18
I820
aI621
aa(lp19
I216
aI120
aa(lp20
I78
aI283
aa(lp21
I183
aI531
aa(lp22
I75
aI470
aa(lp23
I74
aI735
aa(lp24
I365
aI9
aa(lp25
I214
aI767
aa(lp26
I36
aI458
aa(lp27
I505
aI127
aa(lp28
I205
aI695
aa(lp29
I810
aI308
aa(lp30
I972
aI261
aa(lp31
I799
aI584
aa(lp32
I176
aI611
aa(lp33
I212
aI722
aa(lp34
I215
aI514
aa(lp35
I71
aI245
aa(lp36
I186
aI473
aa(lp37
I842
aI292
aa(lp38
I466
aI339
aa(lp39
I205
aI83
aa(lp40
I628
aI227
aa(lp41
I940
aI75
aa(lp42
I30
aI112
aa(lp43
I794
aI390
aa(lp44
I43
aI239
aa(lp45
I688
aI288
aa(lp46
I108
aI583
aa(lp47
I845
aI779
aa(lp48
I316
aI428
aa(lp49
I276
aI396
aa(lp50
I805
aI283
aa(lp51
I867
aI304
aa(lp52
I857
aI366
aa(lp53
I939
aI214
aa(lp54
I118
aI86
aa(lp55
I927
aI129
aa(lp56
I274
aI145
aa(lp57
I721
aI14
aa(lp58
I145
aI613
aa(lp59
I306
aI695
aa(lp60
I560
aI145
aa(lp61
I879
aI306
aa(lp62
I735
aI677
aa(lp63
I69
aI382
aa(lp64
I754
aI567
aa(lp65
I900
aI329
aa(lp66
I193
aI672
aa(lp67
I805
aI49
aa(lp68
I749
aI425
aa(lp69
I269
aI166
aa(lp70
I429
aI516
aa(lp71
I942
aI105
aa(lp72
I146
aI157
aa(lp73
I165
aI421
aa(lp74
I73
aI75
aa(lp75
I452
aI143
aa(lp76
I218
aI221
aa(lp77
I399
aI106
aa(lp78
I909
aI117
aa(lp79
I685
aI367
aa(lp80
I798
aI84
aa(lp81
I204
aI319
aa(lp82
I28
aI223
aa(lp83
I849
aI279
aa(lp84
I428
aI507
aa(lp85
I678
aI450
aa(lp86
I2
aI769
aa(lp87
I387
aI439
aa(lp88
I102
aI581
aa(lp89
I265
aI690
aa(lp90
I667
aI245
aa(lp91
I908
aI473
aa(lp92
I564
aI235
aa(lp93
I774
aI55
aa(lp94
I890
aI150
aa(lp95
I78
aI449
aa(lp96
I75
aI256
aa(lp97
I189
aI86
aa(lp98
I174
aI232
aa(lp99
I151
aI488
aa(lp100
I285
aI467
aa(lp101
I34
aI169
aa(lp102
I952
aI225
aa(lp103
I797
aI85
aa(lp104
I306
aI427
aa(lp105
I310
aI143
aa(lp106
I179
aI600
aa(lp107
I8
aI535
aa(lp108
I954
aI506
aa(lp109
I164
aI16
aa(lp110
I138
aI661
aa(lp111
I475
aI233
aa(lp112
I651
aI702
aa(lp113
I117
aI114
aa(lp114
I618
aI73
aa(lp115
I317
aI264
aa(lp116
I896
aI651
aa(lp117
I175
aI221
aa(lp118
I193
aI108
aa(lp119
I849
aI100
aa(lp120
I491
aI507
aa(lp121
I64
aI780
aa(lp122
I71
aI538
aa(lp123
I914
aI695
aa(lp124
I264
aI221
aa(lp125
I803
aI596
aa(lp126
I34
aI173
aa(lp127
I253
aI429
aa(lp128
I140
aI699
aa(lp129
I324
aI505
aa(lp130
I161
aI473
aa(lp131
I126
aI585
aa(lp132
I335
aI259
aa(lp133
I862
aI546
aa(lp134
I807
aI105
aa(lp135
I321
aI238
aa(lp136
I892
aI351
aa(lp137
I180
aI417
aa(lp138
I42
aI89
aa(lp139
I251
aI618
aa(lp140
I169
aI430
aa(lp141
I176
aI92
aa(lp142
I392
aI88
aa(lp143
I21
aI678
aa(lp144
I856
aI531
aa(lp145
I53
aI388
aa(lp146
I76
aI421
aa(lp147
I566
aI570
aa(lp148
I892
aI465
aa(lp149
I669
aI414
aa(lp150
I140
aI17
aa(lp151
I260
aI160
aa(lp152
I887
aI65
aa(lp153
I142
aI353
aa(lp154
I181
aI146
aa(lp155
I30
aI451
aa(lp156
I672
aI448
aa(lp157
I700
aI205
aa(lp158
I359
aI209
aa(lp159
I79
aI385
aa(lp160
I457
aI167
aa(lp161
I96
aI597
aa(lp162
I711
aI118
aa(lp163
I181
aI384
aa(lp164
I873
aI714
aa(lp165
I441
aI213
aa(lp166
I893
aI146
aa(lp167
I265
aI393
aa(lp168
I502
aI183
aa(lp169
I899
aI608
aa(lp170
I958
aI54
aa(lp171
I82
aI638
aa(lp172
I193
aI582
aa(lp173
I489
aI469
aa(lp174
I120
aI447
aa(lp175
I878
aI660
aa(lp176
I135
aI541
aa(lp177
I604
aI166
aa(lp178
I855
aI47
aa(lp179
I526
aI338
aa(lp180
I91
aI404
aa(lp181
I24
aI695
aa(lp182
I841
aI312
aa(lp183
I820
aI270
aa(lp184
I112
aI718
aa(lp185
I703
aI658
aa(lp186
I182
aI341
aa(lp187
I899
aI66
aa(lp188
I803
aI15
aa(lp189
I326
aI152
aa(lp190
I6
aI598
aa(lp191
I306
aI594
aa(lp192
I964
aI152
aa(lp193
I634
aI559
aa(lp194
I831
aI147
aa(lp195
I542
aI89
aa(lp196
I794
aI409
aa(lp197
I406
aI489
aa(lp198
I836
aI368
aa(lp199
I255
aI383
aa(lp200
I179
aI254
aa(lp201
I343
aI14
aa(lp202
I313
aI143
aa(lp203
I405
aI454
aa(lp204
I614
aI267
aa(lp205
I373
aI163
aa(lp206
I527
aI21
aa(lp207
I482
aI118
aa(lp208
I449
aI579
aa(lp209
I642
aI728
aa(lp210
I122
aI457
aa(lp211
I643
aI510
aa(lp212
I841
aI154
aa(lp213
I586
aI483
aa(lp214
I83
aI579
aa(lp215
I633
aI510
aa(lp216
I799
aI626
aa(lp217
I281
aI319
aa(lp218
I718
aI661
aa(lp219
I241
aI106
aa(lp220
I584
aI640
aa(lp221
I860
aI730
aa(lp222
I682
aI90
aa(lp223
I913
aI199
aa(lp224
I705
aI111
aa(lp225
I670
aI10
aa(lp226
I287
aI467
aa(lp227
I696
aI98
aa(lp228
I906
aI175
aa(lp229
I770
aI117
aa(lp230
I808
aI431
aa(lp231
I411
aI326
aa(lp232
I209
aI512
aa(lp233
I881
aI646
aa(lp234
I622
aI8
aa(lp235
I544
aI129
aa(lp236
I221
aI300
aa(lp237
I589
aI275
aa(lp238
I404
aI611
aa(lp239
I708
aI10
aa(lp240
I904
aI36
aa(lp241
I770
aI63
aa(lp242
I636
aI108
aa(lp243
I939
aI73
aa(lp244
I585
aI442
aa(lp245
I401
aI504
aa(lp246
I862
aI585
aa(lp247
I379
aI116
aa(lp248
I134
aI511
aa(lp249
I806
aI95
aa(lp250
I410
aI634
aa(lp251
I612
aI203
aa(lp252
I274
aI550
aa(lp253
I817
aI5
aa(lp254
I332
aI240
aa(lp255
I23
aI331
aa(lp256
I975
aI670
aa(lp257
I174
aI762
aa(lp258
I487
aI368
aa(lp259
I138
aI656
aa(lp260
I661
aI122
aa(lp261
I887
aI99
aa(lp262
I350
aI88
aa(lp263
I576
aI145
aa(lp264
I205
aI665
aa(lp265
I785
aI516
aa(lp266
I787
aI692
aa(lp267
I227
aI547
aa(lp268
I818
aI643
aa(lp269
I885
aI27
aa(lp270
I632
aI248
aa(lp271
I854
aI42
aa(lp272
I673
aI343
aa(lp273
I846
aI729
aa(lp274
I405
aI553
aa(lp275
I874
aI347
aa(lp276
I100
aI395
aa(lp277
I277
aI182
aa(lp278
I808
aI166
aa(lp279
I135
aI663
aa(lp280
I535
aI86
aa(lp281
I568
aI586
aa(lp282
I262
aI6
aa(lp283
I718
aI690
aa(lp284
I217
aI479
aa(lp285
I816
aI345
aa(lp286
I3
aI561
aa(lp287
I115
aI624
aa(lp288
I615
aI159
aa(lp289
I834
aI585
aa(lp290
I659
aI253
aa(lp291
I591
aI234
aa(lp292
I883
aI465
aa(lp293
I364
aI192
aa(lp294
I539
aI689
aa(lp295
I332
aI422
aa(lp296
I204
aI226
aa(lp297
I864
aI505
aa(lp298
I559
aI504
aa(lp299
I772
aI425
aa(lp300
I83
aI695
aa(lp301
I839
aI669
aa(lp302
I337
aI241
aa(lp303
I170
aI418
aa(lp304
I881
aI120
aa(lp305
I416
aI131
aa(lp306
I900
aI330
aa(lp307
I79
aI757
aa(lp308
I191
aI401
aa(lp309
I54
aI396
aa(lp310
I449
aI210
aa(lp311
I24
aI3
aa(lp312
I698
aI712
aa(lp313
I183
aI20
aa(lp314
I713
aI354
aa(lp315
I850
aI359
aa(lp316
I667
aI267
aa(lp317
I504
aI210
aa(lp318
I308
aI539
aa(lp319
I834
aI338
aa(lp320
I758
aI477
aa(lp321
I539
aI567
aa(lp322
I518
aI339
aa(lp323
I15
aI347
aa(lp324
I652
aI390
aa(lp325
I957
aI64
aa(lp326
I286
aI643
aa(lp327
I175
aI617
aa(lp328
I127
aI652
aa(lp329
I498
aI311
aa(lp330
I19
aI413
aa(lp331
I597
aI86
aa(lp332
I63
aI253
aa(lp333
I446
aI331
aa(lp334
I807
aI694
aa(lp335
I450
aI222
aa(lp336
I583
aI678
aa(lp337
I794
aI724
aa(lp338
I906
aI692
aa(lp339
I851
aI352
aa(lp340
I974
aI258
aa(lp341
I884
aI550
aa(lp342
I372
aI123
aa(lp343
I352
aI15
aa(lp344
I278
aI627
aa(lp345
I882
aI412
aa(lp346
I394
aI166
aa(lp347
I512
aI362
aa(lp348
I865
aI59
aa(lp349
I896
aI52
aa(lp350
I416
aI405
aa(lp351
I325
aI166
aa(lp352
I179
aI389
aa(lp353
I831
aI440
aa(lp354
I303
aI170
aa(lp355
I875
aI205
aa(lp356
I714
aI565
aa(lp357
I170
aI194
aa(lp358
I865
aI418
aa(lp359
I695
aI653
aa(lp360
I150
aI143
aa(lp361
I314
aI397
aa(lp362
I72
aI753
aa(lp363
I168
aI27
aa(lp364
I952
aI82
aa(lp365
I394
aI597
aa(lp366
I191
aI575
aa(lp367
I414
aI111
aa(lp368
I172
aI28
aa(lp369
I578
aI230
aa(lp370
I241
aI562
aa(lp371
I775
aI103
aa(lp372
I568
aI273
aa(lp373
I215
aI129
aa(lp374
I248
aI391
aa(lp375
I84
aI3
aa(lp376
I588
aI96
aa(lp377
I417
aI540
aa(lp378
I533
aI570
aa(lp379
I141
aI324
aa(lp380
I880
aI775
aa(lp381
I922
aI161
aa(lp382
I298
aI727
aa(lp383
I278
aI502
aa(lp384
I906
aI551
aa(lp385
I667
aI713
aa(lp386
I931
aI181
aa(lp387
I710
aI154
aa(lp388
I646
aI284
aa(lp389
I708
aI21
aa(lp390
I265
aI453
aa(lp391
I499
aI116
aa(lp392
I378
aI599
aa(lp393
I422
aI650
aa(lp394
I73
aI550
aa(lp395
I195
aI3
aa(lp396
I79
aI636
aa(lp397
I17
aI4
aa(lp398
I625
aI655
aa(lp399
I283
aI481
aa(lp400
I87
aI498
aa(lp401
I284
aI668
aa(lp402
I564
aI483
aa(lp403
I965
aI108
aa(lp404
I657
aI263
aa(lp405
I864
aI339
aa(lp406
I61
aI529
aa(lp407
I30
aI244
aa(lp408
I801
aI442
aa(lp409
I56
aI559
aa(lp410
I545
aI716
aa(lp411
I719
aI449
aa(lp412
I533
aI721
aa(lp413
I768
aI153
aa(lp414
I888
aI148
aa(lp415
I912
aI348
aa(lp416
I649
aI697
aa(lp417
I388
aI189
aa(lp418
I814
aI476
aa(lp419
I51
aI556
aa(lp420
I580
aI618
aa(lp421
I77
aI628
aa(lp422
I446
aI199
aa(lp423
I21
aI216
aa(lp424
I505
aI147
aa(lp425
I374
aI161
aa(lp426
I367
aI11
aa(lp427
I401
aI314
aa(lp428
I827
aI512
aa(lp429
I204
aI696
aa(lp430
I899
aI175
aa(lp431
I424
aI289
aa(lp432
I93
aI130
aa(lp433
I480
aI467
aa(lp434
I87
aI529
aa(lp435
I184
aI618
aa(lp436
I438
aI324
aa(lp437
I50
aI546
aa(lp438
I444
aI398
aa(lp439
I968
aI592
aa(lp440
I865
aI622
aa(lp441
I461
aI338
aa(lp442
I200
aI116
aa(lp443
I507
aI724
aa(lp444
I974
aI509
aa(lp445
I767
aI138
aa(lp446
I437
aI111
aa(lp447
I19
aI773
aa(lp448
I801
aI581
aa(lp449
I222
aI607
aa(lp450
I830
aI197
aa(lp451
I156
aI742
aa(lp452
I130
aI342
aa(lp453
I561
aI551
aa(lp454
I713
aI439
aa(lp455
I299
aI606
aa(lp456
I296
aI684
aa(lp457
I735
aI418
aa(lp458
I656
aI342
aa(lp459
I467
aI131
aa(lp460
I973
aI490
aa(lp461
I829
aI10
aa(lp462
I351
aI111
aa(lp463
I390
aI597
aa(lp464
I273
aI609
aa(lp465
I550
aI464
aa(lp466
I897
aI551
aa(lp467
I770
aI457
aa(lp468
I897
aI554
aa(lp469
I753
aI493
aa(lp470
I873
aI392
aa(lp471
I909
aI677
aa(lp472
I265
aI288
aa(lp473
I203
aI605
aa(lp474
I605
aI617
aa(lp475
I94
aI100
aa(lp476
I306
aI170
aa(lp477
I145
aI416
aa(lp478
I218
aI594
aa(lp479
I234
aI172
aa(lp480
I499
aI475
aa(lp481
I27
aI746
aa(lp482
I852
aI201
aa(lp483
I963
aI739
aa(lp484
I177
aI737
aa(lp485
I298
aI660
aa(lp486
I68
aI440
aa(lp487
I777
aI118
aa(lp488
I45
aI228
aa(lp489
I79
aI310
aa(lp490
I457
aI302
aa(lp491
I249
aI640
aa(lp492
I786
aI579
aa(lp493
I644
aI23
aa(lp494
I610
aI315
aa(lp495
I495
aI366
aa(lp496
I842
aI285
aa(lp497
I585
aI672
aa(lp498
I729
aI326
aa(lp499
I123
aI381
aa(lp500
I12
aI116
aa(lp501
I963
aI547
aa(lp502
I476
aI297
aa(lp503
I228
aI632
aa(lp504
I670
aI720
aa(lp505
I699
aI706
aa(lp506
I898
aI523
aa(lp507
I558
aI728
aa(lp508
I85
aI703
aa(lp509
I213
aI457
aa(lp510
I319
aI190
aa(lp511
I812
aI774
aa(lp512
I592
aI497
aa(lp513
I405
aI591
aa(lp514
I376
aI535
aa(lp515
I404
aI496
aa(lp516
I972
aI501
aa(lp517
I307
aI293
aa(lp518
I529
aI153
aa(lp519
I957
aI226
aa(lp520
I439
aI325
aa(lp521
I572
aI269
aa(lp522
I523
aI680
aa(lp523
I965
aI549
aa(lp524
I104
aI496
aa(lp525
I233
aI390
aa(lp526
I668
aI728
aa(lp527
I570
aI182
aa(lp528
I424
aI137
aa(lp529
I629
aI699
aa(lp530
I746
aI356
aa(lp531
I427
aI404
aa(lp532
I686
aI694
aa(lp533
I554
aI664
aa(lp534
I599
aI554
aa(lp535
I509
aI556
aa(lp536
I808
aI112
aa(lp537
I281
aI380
aa(lp538
I977
aI626
aa(lp539
I88
aI616
aa(lp540
I286
aI11
aa(lp541
I128
aI426
aa(lp542
I827
aI124
aa(lp543
I119
aI394
aa(lp544
I703
aI495
aa(lp545
I246
aI749
aa(lp546
I20
aI287
aa(lp547
I851
aI716
aa(lp548
I331
aI709
aa(lp549
I77
aI776
aa(lp550
I718
aI318
aa(lp551
I116
aI496
aa(lp552
I103
aI160
aa(lp553
I427
aI11
aa(lp554
I775
aI184
aa(lp555
I839
aI328
aa(lp556
I156
aI354
aa(lp557
I959
aI35
aa(lp558
I420
aI645
aa(lp559
I807
aI312
aa(lp560
I966
aI132
aa(lp561
I370
aI169
aa(lp562
I322
aI470
aa(lp563
I163
aI514
aa(lp564
I933
aI159
aa(lp565
I216
aI546
aa(lp566
I919
aI9
aa(lp567
I282
aI676
aa(lp568
I105
aI567
aa(lp569
I608
aI311
aa(lp570
I73
aI655
aa(lp571
I932
aI37
aa(lp572
I532
aI629
aa(lp573
I232
aI460
aa(lp574
I379
aI321
aa(lp575
I327
aI564
aa(lp576
I828
aI451
aa(lp577
I242
aI601
aa(lp578
I835
aI202
aa(lp579
I785
aI420
aa(lp580
I598
aI494
aa(lp581
I576
aI568
aa(lp582
I145
aI370
aa(lp583
I260
aI114
aa(lp584
I261
aI620
aa(lp585
I36
aI752
aa(lp586
I611
aI633
aa(lp587
I828
aI681
aa(lp588
I894
aI301
aa(lp589
I782
aI50
aa(lp590
I430
aI319
aa(lp591
I202
aI380
aa(lp592
I350
aI119
aa(lp593
I319
aI300
aa(lp594
I904
aI10
aa(lp595
I621
aI570
aa(lp596
I292
aI27
aa(lp597
I664
aI592
aa(lp598
I2
aI300
aa(lp599
I673
aI254
aa(lp600
I334
aI608
aa(lp601
I43
aI515
aa(lp602
I273
aI558
aa(lp603
I964
aI19
aa(lp604
I702
aI503
aa(lp605
I276
aI254
aa(lp606
I313
aI762
aa(lp607
I680
aI357
aa(lp608
I874
aI545
aa(lp609
I235
aI506
aa(lp610
I281
aI180
aa(lp611
I565
aI282
aa(lp612
I822
aI375
aa(lp613
I617
aI432
aa(lp614
I254
aI590
aa(lp615
I551
aI73
aa(lp616
I864
aI495
aa(lp617
I906
aI509
aa(lp618
I676
aI14
aa(lp619
I589
aI274
aa(lp620
I874
aI75
aa(lp621
I309
aI324
aa(lp622
I525
aI722
aa(lp623
I827
aI464
aa(lp624
I792
aI215
aa(lp625
I700
aI273
aa(lp626
I428
aI394
aa(lp627
I782
aI715
aa(lp628
I402
aI630
aa(lp629
I33
aI353
aa(lp630
I747
aI325
aa(lp631
I864
aI478
aa(lp632
I692
aI202
aa(lp633
I610
aI267
aa(lp634
I133
aI26
aa(lp635
I325
aI263
aa(lp636
I236
aI458
aa(lp637
I778
aI715
aa(lp638
I778
aI11
aa(lp639
I533
aI363
aa(lp640
I589
aI650
aa(lp641
I163
aI596
aa(lp642
I824
aI419
aa(lp643
I178
aI596
aa(lp644
I263
aI104
aa(lp645
I718
aI773
aa(lp646
I872
aI161
aa(lp647
I74
aI767
aa(lp648
I387
aI396
aa(lp649
I928
aI190
aa(lp650
I662
aI96
aa(lp651
I11
aI437
aa(lp652
I705
aI482
aa(lp653
I558
aI591
aa(lp654
I387
aI292
aa(lp655
I86
aI115
aa(lp656
I14
aI455
aa(lp657
I62
aI186
aa(lp658
I643
aI220
aa(lp659
I893
aI409
aa(lp660
I808
aI168
aa(lp661
I233
aI643
aa(lp662
I466
aI591
aa(lp663
I912
aI655
aa(lp664
I885
aI547
aa(lp665
I896
aI63
aa(lp666
I603
aI252
aa(lp667
I88
aI168
aa(lp668
I825
aI603
aa(lp669
I855
aI775
aa(lp670
I626
aI604
aa(lp671
I507
aI320
aa(lp672
I689
aI553
aa(lp673
I596
aI28
aa(lp674
I66
aI21
aa(lp675
I904
aI218
aa(lp676
I191
aI334
aa(lp677
I771
aI78
aa(lp678
I821
aI684
aa(lp679
I214
aI155
aa(lp680
I202
aI143
aa(lp681
I46
aI622
aa(lp682
I833
aI667
aa(lp683
I480
aI112
aa(lp684
I114
aI346
aa(lp685
I838
aI363
aa(lp686
I874
aI358
aa(lp687
I414
aI546
aa(lp688
I583
aI619
aa(lp689
I777
aI219
aa(lp690
I969
aI87
aa(lp691
I746
aI477
aa(lp692
I572
aI584
aa(lp693
I770
aI464
aa(lp694
I222
aI675
aa(lp695
I276
aI564
aa(lp696
I443
aI510
aa(lp697
I890
aI20
aa(lp698
I766
aI516
aa(lp699
I778
aI4
aa(lp700
I167
aI542
aa(lp701
I630
aI577
aa(lp702
I136
aI717
aa(lp703
I329
aI462
aa(lp704
I238
aI22
aa(lp705
I871
aI324
aa(lp706
I876
aI554
aa(lp707
I282
aI530
aa(lp708
I329
aI736
aa(lp709
I939
aI166
aa(lp710
I287
aI130
aa(lp711
I226
aI472
aa(lp712
I956
aI539
aa(lp713
I24
aI657
aa(lp714
I94
aI269
aa(lp715
I443
aI334
aa(lp716
I492
aI184
aa(lp717
I521
aI322
aa(lp718
I604
aI554
aa(lp719
I877
aI224
aa(lp720
I153
aI489
aa(lp721
I286
aI110
aa(lp722
I275
aI137
aa(lp723
I520
aI606
aa(lp724
I698
aI629
aa(lp725
I553
aI315
aa(lp726
I802
aI431
aa(lp727
I231
aI28
aa(lp728
I793
aI704
aa(lp729
I702
aI183
aa(lp730
I703
aI510
aa(lp731
I839
aI80
aa(lp732
I610
aI705
aa(lp733
I603
aI629
aa(lp734
I204
aI720
aa(lp735
I157
aI479
aa(lp736
I800
aI4
aa(lp737
I167
aI308
aa(lp738
I148
aI158
aa(lp739
I555
aI502
aa(lp740
I703
aI345
aa(lp741
I228
aI243
aa(lp742
I217
aI724
aa(lp743
I896
aI466
aa(lp744
I647
aI724
aa(lp745
I256
aI327
aa(lp746
I4
aI635
aa(lp747
I604
aI439
aa(lp748
I497
aI160
aa(lp749
I363
aI122
aa(lp750
I202
aI323
aa(lp751
I97
aI606
aa(lp752
I273
aI378
aa(lp753
I516
aI126
aa(lp754
I594
aI21
aa(lp755
I183
aI748
aa(lp756
I215
aI738
aa(lp757
I10
aI177
aa(lp758
I582
aI84
aa(lp759
I202
aI368
aa(lp760
I234
aI312
aa(lp761
I293
aI632
aa(lp762
I910
aI383
aa(lp763
I765
aI29
aa(lp764
I817
aI656
aa(lp765
I78
aI474
aa(lp766
I243
aI498
aa(lp767
I776
aI179
aa(lp768
I722
aI433
aa(lp769
I860
aI9
aa(lp770
I233
aI273
aa(lp771
I732
aI273
aa(lp772
I601
aI672
aa(lp773
I825
aI187
aa(lp774
I247
aI373
aa(lp775
I16
aI201
aa(lp776
I462
aI239
aa(lp777
I208
aI499
aa(lp778
I868
aI483
aa(lp779
I371
aI239
aa(lp780
I609
aI308
aa(lp781
I177
aI227
aa(lp782
I687
aI471
aa(lp783
I875
aI370
aa(lp784
I259
aI366
aa(lp785
I472
aI198
aa(lp786
I689
aI201
aa(lp787
I822
aI111
aa(lp788
I152
aI614
aa(lp789
I224
aI338
aa(lp790
I643
aI272
aa(lp791
I62
aI702
aa(lp792
I485
aI615
aa(lp793
I673
aI627
aa(lp794
I904
aI24
aa(lp795
I381
aI133
aa(lp796
I609
aI158
aa(lp797
I968
aI95
aa(lp798
I407
aI165
aa(lp799
I120
aI565
aa(lp800
I122
aI420
aa(lp801
I139
aI196
aa(lp802
I205
aI98
aa(lp803
I883
aI583
aa(lp804
I154
aI351
aa(lp805
I708
aI684
aa(lp806
I977
aI143
aa(lp807
I14
aI37
aa(lp808
I875
aI438
aa(lp809
I780
aI419
aa(lp810
I853
aI318
aa(lp811
I847
aI780
aa(lp812
I923
aI116
aa(lp813
I285
aI549
aa(lp814
I36
aI307
aa(lp815
I206
aI683
aa(lp816
I164
aI311
aa(lp817
I818
aI216
aa(lp818
I642
aI400
aa(lp819
I451
aI105
aa(lp820
I662
aI106
aa(lp821
I543
aI477
aa(lp822
I342
aI99
aa(lp823
I909
aI144
aa(lp824
I213
aI113
aa(lp825
I24
aI669
aa(lp826
I973
aI271
aa(lp827
I491
aI168
aa(lp828
I341
aI99
aa(lp829
I828
aI772
aa(lp830
I835
aI489
aa(lp831
I675
aI435
aa(lp832
I94
aI223
aa(lp833
I379
aI507
aa(lp834
I954
aI604
aa(lp835
I568
aI675
aa(lp836
I215
aI440
aa(lp837
I415
aI29
aa(lp838
I906
aI318
aa(lp839
I254
aI762
aa(lp840
I913
aI490
aa(lp841
I847
aI624
aa(lp842
I292
aI586
aa(lp843
I793
aI11
aa(lp844
I846
aI428
aa(lp845
I380
aI96
aa(lp846
I854
aI398
aa(lp847
I121
aI768
aa(lp848
I295
aI722
aa(lp849
I676
aI456
aa(lp850
I165
aI391
aa(lp851
I550
aI499
aa(lp852
I529
aI674
aa(lp853
I389
aI166
aa(lp854
I470
aI594
aa(lp855
I875
aI374
aa(lp856
I498
aI181
aa(lp857
I547
aI170
aa(lp858
I66
aI579
aa(lp859
I709
aI455
aa(lp860
I319
aI18
aa(lp861
I187
aI14
aa(lp862
I891
aI544
aa(lp863
I473
aI482
aa(lp864
I857
aI626
aa(lp865
I142
aI90
aa(lp866
I120
aI551
aa(lp867
I389
aI208
aa(lp868
I859
aI453
aa(lp869
I389
aI197
aa(lp870
I145
aI153
aa(lp871
I298
aI745
aa(lp872
I53
aI246
aa(lp873
I474
aI217
aa(lp874
I517
aI90
aa(lp875
I518
aI208
aa(lp876
I85
aI678
aa(lp877
I837
aI198
aa(lp878
I579
aI15
aa(lp879
I434
aI94
aa(lp880
I97
aI308
aa(lp881
I476
aI178
aa(lp882
I10
aI524
aa(lp883
I902
aI14
aa(lp884
I471
aI387
aa(lp885
I776
aI49
aa(lp886
I690
aI182
aa(lp887
I928
aI124
aa(lp888
I195
aI170
aa(lp889
I415
aI302
aa(lp890
I531
aI704
aa(lp891
I378
aI507
aa(lp892
I239
aI579
aa(lp893
I304
aI331
aa(lp894
I865
aI384
aa(lp895
I292
aI706
aa(lp896
I814
aI511
aa(lp897
I924
aI105
aa(lp898
I905
aI427
aa(lp899
I837
aI325
aa(lp900
I144
aI80
aa(lp901
I185
aI594
aa(lp902
I233
aI88
aa(lp903
I946
aI210
aa(lp904
I692
aI643
aa(lp905
I399
aI417
aa(lp906
I517
aI211
aa(lp907
I704
aI721
aa(lp908
I46
aI674
aa(lp909
I393
aI582
aa(lp910
I101
aI237
aa(lp911
I477
aI97
aa(lp912
I828
aI186
aa(lp913
I326
aI598
aa(lp914
I190
aI461
aa(lp915
I125
aI249
aa(lp916
I523
aI158
aa(lp917
I667
aI771
aa(lp918
I170
aI549
aa(lp919
I619
aI491
aa(lp920
I632
aI76
aa(lp921
I98
aI475
aa(lp922
I197
aI527
aa(lp923
I790
aI389
aa(lp924
I673
aI471
aa(lp925
I668
aI85
aa(lp926
I684
aI147
aa(lp927
I679
aI450
aa(lp928
I81
aI443
aa(lp929
I28
aI202
aa(lp930
I692
aI8
aa(lp931
I691
aI552
aa(lp932
I29
aI207
aa(lp933
I248
aI568
aa(lp934
I895
aI628
aa(lp935
I57
aI350
aa(lp936
I619
aI195
aa(lp937
I43
aI12
aa(lp938
I579
aI489
aa(lp939
I167
aI748
aa(lp940
I315
aI721
aa(lp941
I559
aI607
aa(lp942
I823
aI438
aa(lp943
I971
aI324
aa(lp944
I102
aI483
aa(lp945
I891
aI505
aa(lp946
I906
aI564
aa(lp947
I60
aI307
aa(lp948
I224
aI212
aa(lp949
I618
aI240
aa(lp950
I356
aI146
aa(lp951
I907
aI86
aa(lp952
I767
aI438
aa(lp953
I924
aI156
aa(lp954
I12
aI511
aa(lp955
I298
aI408
aa(lp956
I109
aI322
aa(lp957
I215
aI120
aa(lp958
I13
aI498
aa(lp959
I328
aI374
aa(lp960
I705
aI517
aa(lp961
I336
aI207
aa(lp962
I849
aI655
aa(lp963
I128
aI589
aa(lp964
I660
aI89
aa(lp965
I204
aI270
aa(lp966
I149
aI557
aa(lp967
I163
aI697
aa(lp968
I515
aI502
aa(lp969
I590
aI293
aa(lp970
I912
aI416
aa(lp971
I470
aI136
aa(lp972
I426
aI585
aa(lp973
I661
aI145
aa(lp974
I381
aI289
aa(lp975
I301
aI752
aa(lp976
I854
aI624
aa(lp977
I610
aI588
aa(lp978
I291
aI365
aa(lp979
I241
aI354
aa(lp980
I826
aI132
aa(lp981
I859
aI428
aa(lp982
I168
aI550
aa(lp983
I868
aI127
aa(lp984
I347
aI169
aa(lp985
I202
aI672
aa(lp986
I680
aI26
aa(lp987
I411
aI222
aa(lp988
I53
aI17
aa(lp989
I586
aI728
aa(lp990
I775
aI492
aa(lp991
I70
aI672
aa(lp992
I329
aI478
aa(lp993
I108
aI262
aa(lp994
I550
aI440
aa(lp995
I888
aI326
aa(lp996
I236
aI364
aa(lp997
I218
aI314
aa(lp998
I794
aI128
aa(lp999
I180
aI720
aa(lp1000
I787
aI579
aa(lp1001
I791
aI11
aa(lp1002
I225
aI388
aa(lp1003
I479
aI645
aa(lp1004
I851
aI303
aa(lp1005
I324
aI359
aa(lp1006
I442
aI513
aa(lp1007
I477
aI124
aa(lp1008
I539
aI364
aa(lp1009
I745
aI276
aa(lp1010
I241
aI270
aa(lp1011
I47
aI288
aa(lp1012
I454
aI382
aa(lp1013
I705
aI441
aa(lp1014
I476
aI90
aa(lp1015
I670
aI604
aa(lp1016
I823
aI513
aa(lp1017
I283
aI91
aa(lp1018
I8
aI183
aa(lp1019
I679
aI213
aa(lp1020
I496
aI480
aa(lp1021
I954
aI670
aa(lp1022
I877
aI37
aa(lp1023
I964
aI698
aa(lp1024
I79
aI782
aa(lp1025
I231
aI260
aa(lp1026
I197
aI497
aa(lp1027
I268
aI578
aa(lp1028
I215
aI406
aa(lp1029
I527
aI240
aa(lp1030
I21
aI405
aa(lp1031
I694
aI328
aa(lp1032
I120
aI740
aa(lp1033
I2
aI325
aa(lp1034
I705
aI277
aa(lp1035
I108
aI433
aa(lp1036
I169
aI258
aa(lp1037
I99
aI206
aa(lp1038
I99
aI743
aa(lp1039
I769
aI192
aa(lp1040
I663
aI584
aa(lp1041
I12
aI342
aa(lp1042
I375
aI408
aa(lp1043
I506
aI630
aa(lp1044
I388
aI12
aa(lp1045
I575
aI193
aa(lp1046
I899
aI498
aa(lp1047
I49
aI25
aa(lp1048
I842
aI294
aa(lp1049
I200
aI542
aa(lp1050
I552
aI707
aa(lp1051
I682
aI23
aa(lp1052
I641
aI347
aa(lp1053
I273
aI513
aa(lp1054
I133
aI389
aa(lp1055
I397
aI769
aa(lp1056
I393
aI23
aa(lp1057
I7
aI330
aa(lp1058
I828
aI616
aa(lp1059
I466
aI139
aa(lp1060
I658
aI611
aa(lp1061
I417
aI551
aa(lp1062
I629
aI206
aa(lp1063
I479
aI498
aa(lp1064
I605
aI73
aa(lp1065
I777
aI671
aa(lp1066
I435
aI100
aa(lp1067
I470
aI106
aa(lp1068
I294
aI380
aa(lp1069
I797
aI604
aa(lp1070
I826
aI138
aa(lp1071
I885
aI195
aa(lp1072
I447
aI773
aa(lp1073
I657
aI725
aa(lp1074
I460
aI144
aa(lp1075
I471
aI107
aa(lp1076
I681
aI167
aa(lp1077
I709
aI330
aa(lp1078
I957
aI10
aa(lp1079
I537
aI353
aa(lp1080
I334
aI636
aa(lp1081
I382
aI530
aa(lp1082
I490
aI287
aa(lp1083
I606
aI333
aa(lp1084
I504
aI579
aa(lp1085
I687
aI104
aa(lp1086
I673
aI715
aa(lp1087
I404
aI653
aa(lp1088
I241
aI287
aa(lp1089
I287
aI194
aa(lp1090
I934
aI132
aa(lp1091
I886
aI94
aa(lp1092
I428
aI152
aa(lp1093
I330
aI749
aa(lp1094
I765
aI491
aa(lp1095
I607
aI491
aa(lp1096
I896
aI124
aa(lp1097
I419
aI127
aa(lp1098
I48
aI347
aa(lp1099
I177
aI286
aa(lp1100
I53
aI439
aa(lp1101
I140
aI370
aa(lp1102
I760
aI589
aa(lp1103
I291
aI159
aa(lp1104
I700
aI131
aa(lp1105
I655
aI702
aa(lp1106
I868
aI208
aa(lp1107
I269
aI385
aa(lp1108
I29
aI539
aa(lp1109
I54
aI714
aa(lp1110
I381
aI241
aa(lp1111
I70
aI530
aa(lp1112
I409
aI338
aa(lp1113
I230
aI330
aa(lp1114
I34
aI778
aa(lp1115
I54
aI459
aa(lp1116
I720
aI559
aa(lp1117
I146
aI357
aa(lp1118
I609
aI732
aa(lp1119
I711
aI393
aa(lp1120
I737
aI314
aa(lp1121
I534
aI372
aa(lp1122
I254
aI636
aa(lp1123
I632
aI347
aa(lp1124
I143
aI189
aa(lp1125
I897
aI487
aa(lp1126
I114
aI704
aa(lp1127
I401
aI152
aa(lp1128
I462
aI209
aa(lp1129
I850
aI331
aa(lp1130
I172
aI320
aa(lp1131
I879
aI67
aa(lp1132
I90
aI181
aa(lp1133
I115
aI183
aa(lp1134
I704
aI647
aa(lp1135
I540
aI706
aa(lp1136
I688
aI705
aa(lp1137
I426
aI145
aa(lp1138
I707
aI482
aa(lp1139
I5
aI631
aa(lp1140
I921
aI37
aa(lp1141
I399
aI402
aa(lp1142
I843
aI129
aa(lp1143
I165
aI247
aa(lp1144
I825
aI358
aa(lp1145
I38
aI286
aa(lp1146
I819
aI200
aa(lp1147
I284
aI330
aa(lp1148
I618
aI730
aa(lp1149
I413
aI18
aa(lp1150
I696
aI181
aa(lp1151
I902
aI138
aa(lp1152
I969
aI340
aa(lp1153
I189
aI579
aa(lp1154
I813
aI110
aa(lp1155
I599
aI337
aa(lp1156
I235
aI85
aa(lp1157
I380
aI614
aa(lp1158
I720
aI275
aa(lp1159
I464
aI170
aa(lp1160
I844
aI475
aa(lp1161
I468
aI477
aa(lp1162
I902
aI127
aa(lp1163
I78
aI536
aa(lp1164
I768
aI49
aa(lp1165
I263
aI639
aa(lp1166
I277
aI284
aa(lp1167
I307
aI427
aa(lp1168
I680
aI396
aa(lp1169
I771
aI129
aa(lp1170
I679
aI296
aa(lp1171
I73
aI656
aa(lp1172
I912
aI471
aa(lp1173
I307
aI615
aa(lp1174
I2
aI725
aa(lp1175
I971
aI95
aa(lp1176
I484
aI331
aa(lp1177
I165
aI623
aa(lp1178
I122
aI678
aa(lp1179
I713
aI396
aa(lp1180
I96
aI404
aa(lp1181
I809
aI209
aa(lp1182
I258
aI169
aa(lp1183
I814
aI424
aa(lp1184
I261
aI179
aa(lp1185
I316
aI777
aa(lp1186
I658
aI240
aa(lp1187
I11
aI659
aa(lp1188
I24
aI176
aa(lp1189
I4
aI511
aa(lp1190
I701
aI498
aa(lp1191
I623
aI606
aa(lp1192
I49
aI711
aa(lp1193
I105
aI222
aa(lp1194
I865
aI451
aa(lp1195
I218
aI90
aa(lp1196
I636
aI621
aa(lp1197
I177
aI419
aa(lp1198
I952
aI131
aa(lp1199
I561
aI80
aa(lp1200
I243
aI92
aa(lp1201
I691
aI288
aa(lp1202
I855
aI618
aa(lp1203
I55
aI545
aa(lp1204
I407
aI330
aa(lp1205
I599
aI208
aa(lp1206
I750
aI575
aa(lp1207
I657
aI328
aa(lp1208
I791
aI494
aa(lp1209
I463
aI370
aa(lp1210
I708
aI380
aa(lp1211
I529
aI499
aa(lp1212
I397
aI487
aa(lp1213
I469
aI199
aa(lp1214
I165
aI370
aa(lp1215
I513
aI625
aa(lp1216
I382
aI526
aa(lp1217
I746
aI682
aa(lp1218
I671
aI170
aa(lp1219
I964
aI218
aa(lp1220
I378
aI433
aa(lp1221
I847
aI212
aa(lp1222
I92
aI707
aa(lp1223
I172
aI78
aa(lp1224
I132
aI166
aa(lp1225
I41
aI411
aa(lp1226
I54
aI221
aa(lp1227
I17
aI298
aa(lp1228
I85
aI213
aa(lp1229
I267
aI251
aa(lp1230
I906
aI501
aa(lp1231
I299
aI253
aa(lp1232
I701
aI455
aa(lp1233
I238
aI697
aa(lp1234
I29
aI568
aa(lp1235
I777
aI556
aa(lp1236
I173
aI272
aa(lp1237
I386
aI137
aa(lp1238
I222
aI510
aa(lp1239
I820
aI583
aa(lp1240
I895
aI38
aa(lp1241
I231
aI324
aa(lp1242
I854
aI510
aa(lp1243
I745
aI414
aa(lp1244
I690
aI418
aa(lp1245
I765
aI437
aa(lp1246
I604
aI338
aa(lp1247
I231
aI94
aa(lp1248
I7
aI490
aa(lp1249
I183
aI432
aa(lp1250
I187
aI479
aa(lp1251
I767
aI14
aa(lp1252
I106
aI534
aa(lp1253
I189
aI345
aa(lp1254
I227
aI396
aa(lp1255
I887
aI773
aa(lp1256
I977
aI93
aa(lp1257
I519
aI671
aa(lp1258
I660
aI469
aa(lp1259
I593
aI209
aa(lp1260
I118
aI4
aa(lp1261
I962
aI301
aa(lp1262
I275
aI80
aa(lp1263
I785
aI691
aa(lp1264
I106
aI414
aa(lp1265
I314
aI86
aa(lp1266
I263
aI507
aa(lp1267
I166
aI653
aa(lp1268
I360
aI95
aa(lp1269
I58
aI379
aa(lp1270
I925
aI204
aa(lp1271
I3
aI33
aa(lp1272
I35
aI560
aa(lp1273
I607
aI118
aa(lp1274
I218
aI709
aa(lp1275
I373
aI80
aa(lp1276
I614
aI320
aa(lp1277
I240
aI438
aa(lp1278
I454
aI309
aa(lp1279
I334
aI167
aa(lp1280
I644
aI274
aa(lp1281
I244
aI425
aa(lp1282
I161
aI122
aa(lp1283
I141
aI169
aa(lp1284
I795
aI304
aa(lp1285
I162
aI563
aa(lp1286
I163
aI252
aa(lp1287
I891
aI512
aa(lp1288
I130
aI713
aa(lp1289
I715
aI472
aa(lp1290
I954
aI41
aa(lp1291
I312
aI93
aa(lp1292
I186
aI482
aa(lp1293
I548
aI75
aa(lp1294
I877
aI55
aa(lp1295
I725
aI510
aa(lp1296
I169
aI453
aa(lp1297
I547
aI698
aa(lp1298
I565
aI498
aa(lp1299
I862
aI65
aa(lp1300
I952
aI43
aa(lp1301
I452
aI169
aa(lp1302
I219
aI603
aa(lp1303
I617
aI345
aa(lp1304
I103
aI629
aa(lp1305
I699
aI24
aa(lp1306
I93
aI773
aa(lp1307
I274
aI580
aa(lp1308
I614
aI220
aa(lp1309
I899
aI615
aa(lp1310
I871
aI570
aa(lp1311
I976
aI506
aa(lp1312
I960
aI429
aa(lp1313
I194
aI648
aa(lp1314
I89
aI488
aa(lp1315
I202
aI151
aa(lp1316
I448
aI13
aa(lp1317
I548
aI501
aa(lp1318
I358
aI778
aa(lp1319
I157
aI218
aa(lp1320
I459
aI84
aa(lp1321
I69
aI574
aa(lp1322
I573
aI601
aa(lp1323
I499
aI576
aa(lp1324
I236
aI335
aa(lp1325
I862
aI90
aa(lp1326
I698
aI674
aa(lp1327
I712
aI249
aa(lp1328
I275
aI320
aa(lp1329
I298
aI363
aa(lp1330
I888
aI558
aa(lp1331
I815
aI355
aa(lp1332
I863
aI279
aa(lp1333
I909
aI27
aa(lp1334
I634
aI139
aa(lp1335
I333
aI747
aa(lp1336
I862
aI296
aa(lp1337
I781
aI86
aa(lp1338
I909
aI315
aa(lp1339
I905
aI376
aa(lp1340
I318
aI549
aa(lp1341
I767
aI147
aa(lp1342
I15
aI538
aa(lp1343
I606
aI112
aa(lp1344
I631
aI100
aa(lp1345
I576
aI80
aa(lp1346
I174
aI316
aa(lp1347
I741
aI580
aa(lp1348
I709
aI197
aa(lp1349
I788
aI357
aa(lp1350
I976
aI690
aa(lp1351
I20
aI413
aa(lp1352
I327
aI295
aa(lp1353
I966
aI426
aa(lp1354
I870
aI729
aa(lp1355
I470
aI625
aa(lp1356
I101
aI622
aa(lp1357
I43
aI26
aa(lp1358
I235
aI542
aa(lp1359
I195
aI270
aa(lp1360
I779
aI283
aa(lp1361
I609
aI446
aa(lp1362
I487
aI190
aa(lp1363
I289
aI556
aa(lp1364
I306
aI353
aa(lp1365
I518
aI776
aa(lp1366
I198
aI337
aa(lp1367
I834
aI136
aa(lp1368
I251
aI458
aa(lp1369
I519
aI564
aa(lp1370
I55
aI270
aa(lp1371
I329
aI593
aa(lp1372
I189
aI240
aa(lp1373
I42
aI109
aa(lp1374
I703
aI556
aa(lp1375
I639
aI321
aa(lp1376
I45
aI743
aa(lp1377
I248
aI275
aa(lp1378
I445
aI92
aa(lp1379
I496
aI381
aa(lp1380
I912
aI698
aa(lp1381
I680
aI687
aa(lp1382
I87
aI703
aa(lp1383
I574
aI510
aa(lp1384
I788
aI665
aa(lp1385
I425
aI408
aa(lp1386
I298
aI739
aa(lp1387
I378
aI521
aa(lp1388
I470
aI558
aa(lp1389
I585
aI714
aa(lp1390
I844
aI683
aa(lp1391
I318
aI365
aa(lp1392
I680
aI450
aa(lp1393
I22
aI299
aa(lp1394
I439
aI504
aa(lp1395
I541
aI150
aa(lp1396
I367
aI86
aa(lp1397
I454
aI361
aa(lp1398
I233
aI113
aa(lp1399
I649
aI298
aa(lp1400
I603
aI289
aa(lp1401
I673
aI509
aa(lp1402
I62
aI188
aa(lp1403
I704
aI420
aa(lp1404
I562
aI448
aa(lp1405
I913
aI26
aa(lp1406
I129
aI482
aa(lp1407
I701
aI215
aa(lp1408
I579
aI701
aa(lp1409
I769
aI565
aa(lp1410
I827
aI645
aa(lp1411
I289
aI450
aa(lp1412
I150
aI358
aa(lp1413
I397
aI638
aa(lp1414
I477
aI579
aa(lp1415
I77
aI640
aa(lp1416
I347
aI198
aa(lp1417
I190
aI269
aa(lp1418
I268
aI528
aa(lp1419
I774
aI74
aa(lp1420
I754
aI561
aa(lp1421
I530
aI174
aa(lp1422
I791
aI75
aa(lp1423
I608
aI435
aa(lp1424
I379
aI513
aa(lp1425
I377
aI24
aa(lp1426
I641
aI228
aa(lp1427
I88
aI678
aa(lp1428
I974
aI57
aa(lp1429
I21
aI650
aa(lp1430
I8
aI489
aa(lp1431
I498
aI377
aa(lp1432
I372
aI770
aa(lp1433
I965
aI410
aa(lp1434
I523
aI728
aa(lp1435
I100
aI282
aa(lp1436
I820
aI72
aa(lp1437
I636
aI364
aa(lp1438
I584
aI640
aa(lp1439
I184
aI145
aa(lp1440
I173
aI111
aa(lp1441
I243
aI29
aa(lp1442
I450
aI101
aa(lp1443
I176
aI119
aa(lp1444
I118
aI185
aa(lp1445
I491
aI348
aa(lp1446
I420
aI159
aa(lp1447
I968
aI548
aa(lp1448
I870
aI336
aa(lp1449
I16
aI141
aa(lp1450
I773
aI409
aa(lp1451
I712
aI161
aa(lp1452
I63
aI366
aa(lp1453
I275
aI513
aa(lp1454
I919
aI174
aa(lp1455
I441
aI611
aa(lp1456
I141
aI725
aa(lp1457
I286
aI243
aa(lp1458
I55
aI462
aa(lp1459
I511
aI636
aa(lp1460
I377
aI543
aa(lp1461
I117
aI103
aa(lp1462
I703
aI134
aa(lp1463
I678
aI426
aa(lp1464
I4
aI609
aa(lp1465
I819
aI398
aa(lp1466
I209
aI234
aa(lp1467
I812
aI293
aa(lp1468
I24
aI255
aa(lp1469
I663
aI514
aa(lp1470
I678
aI462
aa(lp1471
I27
aI200
aa(lp1472
I969
aI150
aa(lp1473
I242
aI345
aa(lp1474
I440
aI13
aa(lp1475
I876
aI732
aa(lp1476
I23
aI345
aa(lp1477
I41
aI680
aa(lp1478
I72
aI260
aa(lp1479
I879
aI438
aa(lp1480
I326
aI568
aa(lp1481
I597
aI427
aa(lp1482
I103
aI497
aa(lp1483
I30
aI274
aa(lp1484
I84
aI634
aa(lp1485
I615
aI189
aa(lp1486
I26
aI562
aa(lp1487
I376
aI143
aa(lp1488
I914
aI315
aa(lp1489
I864
aI302
aa(lp1490
I477
aI574
aa(lp1491
I185
aI772
aa(lp1492
I25
aI84
aa(lp1493
I658
aI118
aa(lp1494
I280
aI308
aa(lp1495
I153
aI193
aa(lp1496
I53
aI717
aa(lp1497
I394
aI590
aa(lp1498
I23
aI280
aa(lp1499
I868
aI570
aa(lp1500
I460
aI548
aa(lp1501
I9
aI22
aa(lp1502
I531
aI15
aa(lp1503
I901
aI677
aa(lp1504
I276
aI394
aa(lp1505
I804
aI551
aa(lp1506
I881
aI57
aa(lp1507
I12
aI535
aa(lp1508
I688
aI442
aa(lp1509
I630
aI286
aa(lp1510
I157
aI487
aa(lp1511
I400
aI94
aa(lp1512
I905
aI524
aa(lp1513
I422
aI304
aa(lp1514
I816
aI493
aa(lp1515
I545
aI26
aa(lp1516
I450
aI596
aa(lp1517
I609
aI646
aa(lp1518
I220
aI709
aa(lp1519
I809
aI312
aa(lp1520
I124
aI539
aa(lp1521
I865
aI606
aa(lp1522
I207
aI293
aa(lp1523
I542
aI338
aa(lp1524
I550
aI447
aa(lp1525
I539
aI312
aa(lp1526
I729
aI297
aa(lp1527
I310
aI201
aa(lp1528
I249
aI351
aa(lp1529
I859
aI178
aa(lp1530
I484
aI501
aa(lp1531
I971
aI245
aa(lp1532
I107
aI197
aa(lp1533
I612
aI488
aa(lp1534
I777
aI283
aa(lp1535
I3
aI595
aa(lp1536
I306
aI119
aa(lp1537
I69
aI349
aa(lp1538
I10
aI602
aa(lp1539
I247
aI116
aa(lp1540
I855
aI594
aa(lp1541
I107
aI232
aa(lp1542
I253
aI473
aa(lp1543
I274
aI487
aa(lp1544
I827
aI300
aa(lp1545
I499
aI24
aa(lp1546
I676
aI241
aa(lp1547
I149
aI238
aa(lp1548
I119
aI443
aa(lp1549
I658
aI83
aa(lp1550
I560
aI662
aa(lp1551
I659
aI137
aa(lp1552
I5
aI220
aa(lp1553
I968
aI506
aa(lp1554
I625
aI731
aa(lp1555
I969
aI685
aa(lp1556
I603
aI194
aa(lp1557
I17
aI488
aa(lp1558
I706
aI714
aa(lp1559
I106
aI466
aa(lp1560
I502
aI496
aa(lp1561
I977
aI164
aa(lp1562
I207
aI653
aa(lp1563
I568
aI199
aa(lp1564
I688
aI380
aa(lp1565
I163
aI642
aa(lp1566
I912
aI418
aa(lp1567
I920
aI164
aa(lp1568
I20
aI272
aa(lp1569
I959
aI281
aa(lp1570
I181
aI744
aa(lp1571
I110
aI528
aa(lp1572
I887
aI526
aa(lp1573
I76
aI421
aa(lp1574
I521
aI187
aa(lp1575
I936
aI13
aa(lp1576
I845
aI663
aa(lp1577
I167
aI435
aa(lp1578
I662
aI263
aa(lp1579
I870
aI88
aa(lp1580
I447
aI608
aa(lp1581
I726
aI466
aa(lp1582
I771
aI188
aa(lp1583
I592
aI655
aa(lp1584
I628
aI661
aa(lp1585
I565
aI104
aa(lp1586
I158
aI646
aa(lp1587
I488
aI628
aa(lp1588
I207
aI586
aa(lp1589
I278
aI199
aa(lp1590
I37
aI413
aa(lp1591
I630
aI729
aa(lp1592
I468
aI304
aa(lp1593
I406
aI325
aa(lp1594
I459
aI209
aa(lp1595
I601
aI269
aa(lp1596
I324
aI166
aa(lp1597
I312
aI254
aa(lp1598
I699
aI577
aa(lp1599
I259
aI710
aa(lp1600
I757
aI323
aa(lp1601
I326
aI507
aa(lp1602
I901
aI623
aa(lp1603
I404
aI74
aa(lp1604
I751
aI436
aa(lp1605
I311
aI694
aa(lp1606
I698
aI102
aa(lp1607
I107
aI79
aa(lp1608
I39
aI422
aa(lp1609
I875
aI444
aa(lp1610
I539
aI371
aa(lp1611
I691
aI466
aa(lp1612
I381
aI528
aa(lp1613
I229
aI317
aa(lp1614
I78
aI671
aa(lp1615
I784
aI198
aa(lp1616
I688
aI445
aa(lp1617
I976
aI206
aa(lp1618
I853
aI429
aa(lp1619
I593
aI322
aa(lp1620
I798
aI654
aa(lp1621
I800
aI108
aa(lp1622
I684
aI701
aa(lp1623
I885
aI702
aa(lp1624
I586
aI187
aa(lp1625
I209
aI76
aa(lp1626
I548
aI154
aa(lp1627
I430
aI144
aa(lp1628
I210
aI474
aa(lp1629
I139
aI659
aa(lp1630
I24
aI488
aa(lp1631
I281
aI181
aa(lp1632
I145
aI180
aa(lp1633
I85
aI116
aa(lp1634
I180
aI217
aa(lp1635
I153
aI598
aa(lp1636
I335
aI281
aa(lp1637
I675
aI580
aa(lp1638
I360
aI192
aa(lp1639
I296
aI364
aa(lp1640
I177
aI418
aa(lp1641
I330
aI104
aa(lp1642
I675
aI698
aa(lp1643
I517
aI579
aa(lp1644
I37
aI265
aa(lp1645
I250
aI563
aa(lp1646
I841
aI313
aa(lp1647
I124
aI674
aa(lp1648
I25
aI371
aa(lp1649
I86
aI392
aa(lp1650
I472
aI584
aa(lp1651
I891
aI198
aa(lp1652
I106
aI186
aa(lp1653
I449
aI511
aa(lp1654
I834
aI390
aa(lp1655
I27
aI754
aa(lp1656
I866
aI293
aa(lp1657
I514
aI315
aa(lp1658
I354
aI170
aa(lp1659
I68
aI108
aa(lp1660
I165
aI673
aa(lp1661
I175
aI148
aa(lp1662
I258
aI321
aa(lp1663
I466
aI619
aa(lp1664
I687
aI303
aa(lp1665
I976
aI198
aa(lp1666
I245
aI564
aa(lp1667
I117
aI168
aa(lp1668
I909
aI43
aa(lp1669
I131
aI137
aa(lp1670
I149
aI781
aa(lp1671
I815
aI454
aa(lp1672
I473
aI87
aa(lp1673
I357
aI197
aa(lp1674
I62
aI567
aa(lp1675
I590
aI217
aa(lp1676
I195
aI475
aa(lp1677
I415
aI479
aa(lp1678
I694
aI122
aa(lp1679
I783
aI344
aa(lp1680
I250
aI495
aa(lp1681
I559
aI222
aa(lp1682
I361
aI163
aa(lp1683
I733
aI413
aa(lp1684
I263
aI626
aa(lp1685
I125
aI631
aa(lp1686
I218
aI192
aa(lp1687
I874
aI412
aa(lp1688
I238
aI282
aa(lp1689
I625
aI323
aa(lp1690
I633
aI727
aa(lp1691
I794
aI277
aa(lp1692
I568
aI715
aa(lp1693
I976
aI130
aa(lp1694
I128
aI460
aa(lp1695
I807
aI623
aa(lp1696
I84
aI237
aa(lp1697
I88
aI129
aa(lp1698
I182
aI372
aa(lp1699
I387
aI23
aa(lp1700
I136
aI29
aa(lp1701
I656
aI128
aa(lp1702
I405
aI155
aa(lp1703
I184
aI519
aa(lp1704
I897
aI673
aa(lp1705
I237
aI599
aa(lp1706
I270
aI312
aa(lp1707
I230
aI731
aa(lp1708
I118
aI747
aa(lp1709
I421
aI99
aa(lp1710
I5
aI64
aa(lp1711
I963
aI124
aa(lp1712
I598
aI634
aa(lp1713
I853
aI537
aa(lp1714
I159
aI378
aa(lp1715
I105
aI744
aa(lp1716
I294
aI777
aa(lp1717
I215
aI537
aa(lp1718
I132
aI393
aa(lp1719
I81
aI210
aa(lp1720
I102
aI294
aa(lp1721
I81
aI717
aa(lp1722
I738
aI337
aa(lp1723
I732
aI321
aa(lp1724
I578
aI570
aa(lp1725
I792
aI571
aa(lp1726
I186
aI599
aa(lp1727
I516
aI142
aa(lp1728
I221
aI82
aa(lp1729
I542
aI139
aa(lp1730
I260
aI426
aa(lp1731
I101
aI742
aa(lp1732
I935
aI91
aa(lp1733
I866
aI516
aa(lp1734
I300
aI256
aa(lp1735
I785
aI132
aa(lp1736
I581
aI451
aa(lp1737
I124
aI548
aa(lp1738
I886
aI457
aa(lp1739
I65
aI276
aa(lp1740
I717
aI120
aa(lp1741
I673
aI113
aa(lp1742
I269
aI82
aa(lp1743
I151
aI273
aa(lp1744
I656
aI368
aa(lp1745
I240
aI563
aa(lp1746
I632
aI214
aa(lp1747
I477
aI153
aa(lp1748
I139
aI134
aa(lp1749
I964
aI690
aa(lp1750
I73
aI657
aa(lp1751
I258
aI700
aa(lp1752
I667
aI428
aa(lp1753
I879
aI505
aa(lp1754
I963
aI18
aa(lp1755
I351
aI199
aa(lp1756
I258
aI241
aa(lp1757
I191
aI734
aa(lp1758
I670
aI391
aa(lp1759
I471
aI331
aa(lp1760
I794
aI587
aa(lp1761
I571
aI518
aa(lp1762
I149
aI649
aa(lp1763
I104
aI322
aa(lp1764
I261
aI10
aa(lp1765
I818
aI395
aa(lp1766
I913
aI649
aa(lp1767
I954
aI184
aa(lp1768
I550
aI588
aa(lp1769
I545
aI482
aa(lp1770
I861
aI455
aa(lp1771
I447
aI5
aa(lp1772
I968
aI391
aa(lp1773
I902
aI482
aa(lp1774
I850
aI136
aa(lp1775
I106
aI87
aa(lp1776
I206
aI668
aa(lp1777
I207
aI556
aa(lp1778
I769
aI144
aa(lp1779
I279
aI630
aa(lp1780
I765
aI692
aa(lp1781
I799
aI296
aa(lp1782
I698
aI689
aa(lp1783
I274
aI254
aa(lp1784
I672
aI179
aa(lp1785
I962
aI664
aa(lp1786
I600
aI99
aa(lp1787
I131
aI161
aa(lp1788
I324
aI585
aa(lp1789
I727
aI279
aa(lp1790
I159
aI245
aa(lp1791
I300
aI681
aa(lp1792
I890
aI347
aa(lp1793
I56
aI744
aa(lp1794
I547
aI94
aa(lp1795
I448
aI196
aa(lp1796
I77
aI175
aa(lp1797
I934
aI198
aa(lp1798
I669
aI338
aa(lp1799
I872
aI31
aa(lp1800
I395
aI155
aa(lp1801
I633
aI26
aa(lp1802
I223
aI154
aa(lp1803
I717
aI348
aa(lp1804
I971
aI631
aa(lp1805
I10
aI731
aa(lp1806
I416
aI616
aa(lp1807
I201
aI390
aa(lp1808
I589
aI662
aa(lp1809
I729
aI344
aa(lp1810
I937
aI142
aa(lp1811
I897
aI505
aa(lp1812
I264
aI478
aa(lp1813
I15
aI428
aa(lp1814
I266
aI164
aa(lp1815
I72
aI112
aa(lp1816
I45
aI421
aa(lp1817
I234
aI764
aa(lp1818
I547
aI506
aa(lp1819
I885
aI156
aa(lp1820
I583
aI693
aa(lp1821
I388
aI394
aa(lp1822
I140
aI548
aa(lp1823
I25
aI753
aa(lp1824
I570
aI783
aa(lp1825
I598
aI652
aa(lp1826
I268
aI606
aa(lp1827
I518
aI671
aa(lp1828
I697
aI203
aa(lp1829
I518
aI702
aa(lp1830
I899
aI518
aa(lp1831
I488
aI642
aa(lp1832
I507
aI371
aa(lp1833
I426
aI175
aa(lp1834
I646
aI129
aa(lp1835
I476
aI322
aa(lp1836
I697
aI333
aa(lp1837
I121
aI423
aa(lp1838
I878
aI45
aa(lp1839
I793
aI600
aa(lp1840
I470
aI491
aa(lp1841
I502
aI345
aa(lp1842
I553
aI188
aa(lp1843
I926
aI107
aa(lp1844
I914
aI116
aa(lp1845
I684
aI502
aa(lp1846
I174
aI208
aa(lp1847
I64
aI268
aa(lp1848
I283
aI632
aa(lp1849
I48
aI297
aa(lp1850
I96
aI542
aa(lp1851
I493
aI217
aa(lp1852
I683
aI93
aa(lp1853
I291
aI555
aa(lp1854
I216
aI6
aa(lp1855
I658
aI485
aa(lp1856
I808
aI596
aa(lp1857
I726
aI319
aa(lp1858
I256
aI620
aa(lp1859
I823
aI124
aa(lp1860
I719
aI694
aa(lp1861
I405
aI323
aa(lp1862
I267
aI757
aa(lp1863
I165
aI691
aa(lp1864
I415
aI553
aa(lp1865
I772
aI158
aa(lp1866
I833
aI348
aa(lp1867
I68
aI322
aa(lp1868
I121
aI636
aa(lp1869
I842
aI11
aa(lp1870
I690
aI209
aa(lp1871
I123
aI749
aa(lp1872
I763
aI484
aa(lp1873
I675
aI340
aa(lp1874
I433
aI600
aa(lp1875
I712
aI770
aa(lp1876
I76
aI613
aa(lp1877
I682
aI571
aa(lp1878
I458
aI176
aa(lp1879
I669
aI720
aa(lp1880
I545
aI633
aa(lp1881
I316
aI672
aa(lp1882
I10
aI445
aa(lp1883
I213
aI105
aa(lp1884
I527
aI14
aa(lp1885
I124
aI705
aa(lp1886
I788
aI440
aa(lp1887
I870
aI482
aa(lp1888
I416
aI638
aa(lp1889
I214
aI274
aa(lp1890
I172
aI493
aa(lp1891
I26
aI494
aa(lp1892
I20
aI13
aa(lp1893
I578
aI222
aa(lp1894
I297
aI168
aa(lp1895
I581
aI663
aa(lp1896
I280
aI135
aa(lp1897
I788
aI724
aa(lp1898
I865
aI506
aa(lp1899
I763
aI101
aa(lp1900
I324
aI599
aa(lp1901
I821
aI699
aa(lp1902
I466
aI101
aa(lp1903
I103
aI493
aa(lp1904
I811
aI273
aa(lp1905
I5
aI118
aa(lp1906
I285
aI338
aa(lp1907
I619
aI593
aa(lp1908
I422
aI586
aa(lp1909
I52
aI372
aa(lp1910
I830
aI409
aa(lp1911
I912
aI415
aa(lp1912
I685
aI636
aa(lp1913
I195
aI419
aa(lp1914
I380
aI503
aa(lp1915
I965
aI150
aa(lp1916
I491
aI204
aa(lp1917
I883
aI356
aa(lp1918
I212
aI285
aa(lp1919
I751
aI711
aa(lp1920
I3
aI538
aa(lp1921
I304
aI273
aa(lp1922
I787
aI223
aa(lp1923
I404
aI124
aa(lp1924
I790
aI676
aa(lp1925
I548
aI177
aa(lp1926
I657
aI77
aa(lp1927
I167
aI776
aa(lp1928
I198
aI485
aa(lp1929
I84
aI695
aa(lp1930
I327
aI309
aa(lp1931
I567
aI88
aa(lp1932
I92
aI392
aa(lp1933
I422
aI318
aa(lp1934
I812
aI313
aa(lp1935
I255
aI101
aa(lp1936
I343
aI97
aa(lp1937
I25
aI698
aa(lp1938
I965
aI572
aa(lp1939
I187
aI567
aa(lp1940
I843
aI448
aa(lp1941
I801
aI683
aa(lp1942
I285
aI315
aa(lp1943
I462
aI617
aa(lp1944
I512
aI632
aa(lp1945
I967
aI131
aa(lp1946
I599
aI130
aa(lp1947
I586
aI177
aa(lp1948
I877
aI121
aa(lp1949
I385
aI611
aa(lp1950
I710
aI256
aa(lp1951
I633
aI503
aa(lp1952
I452
aI553
aa(lp1953
I768
aI595
aa(lp1954
I612
aI5
aa(lp1955
I426
aI198
aa(lp1956
I607
aI352
aa(lp1957
I561
aI436
aa(lp1958
I778
aI207
aa(lp1959
I421
aI293
aa(lp1960
I516
aI509
aa(lp1961
I767
aI155
aa(lp1962
I510
aI586
aa(lp1963
I76
aI468
aa(lp1964
I277
aI545
aa(lp1965
I829
aI357
aa(lp1966
I421
aI82
aa(lp1967
I837
aI343
aa(lp1968
I626
aI640
aa(lp1969
I703
aI775
aa(lp1970
I245
aI85
aa(lp1971
I455
aI21
aa(lp1972
I666
aI27
aa(lp1973
I257
aI731
aa(lp1974
I675
aI274
aa(lp1975
I552
aI721
aa(lp1976
I856
aI310
aa(lp1977
I243
aI776
aa(lp1978
I81
aI398
aa(lp1979
I889
aI615
aa(lp1980
I224
aI770
aa(lp1981
I977
aI646
aa(lp1982
I802
aI277
aa(lp1983
I446
aI645
aa(lp1984
I306
aI644
aa(lp1985
I360
aI229
aa(lp1986
I771
aI26
aa(lp1987
I543
aI96
aa(lp1988
I520
aI455
aa(lp1989
I255
aI246
aa(lp1990
I161
aI355
aa(lp1991
I133
aI443
aa(lp1992
I207
aI24
aa(lp1993
I903
aI302
aa(lp1994
I283
aI343
aa(lp1995
I168
aI272
aa(lp1996
I212
aI738
aa(lp1997
I594
aI117
aa(lp1998
I437
aI325
aa(lp1999
I634
aI687
aa(lp2000
I374
aI203
aa(lp2001
I609
aI270
aa(lp2002
I548
aI610
aa(lp2003
I723
aI773
aa(lp2004
I784
aI478
aa(lp2005
I673
aI703
aa(lp2006
I250
aI749
aa(lp2007
I396
aI28
aa(lp2008
I478
aI498
aa(lp2009
I637
aI180
aa(lp2010
I454
aI116
aa(lp2011
I615
aI665
aa(lp2012
I566
aI629
aa(lp2013
I311
aI747
aa(lp2014
I614
aI12
aa(lp2015
I152
aI531
aa(lp2016
I852
aI515
aa(lp2017
I486
aI118
aa(lp2018
I377
aI771
aa(lp2019
I829
aI224
aa(lp2020
I83
aI459
aa(lp2021
I720
aI432
aa(lp2022
I146
aI263
aa(lp2023
I788
aI209
aa(lp2024
I772
aI101
aa(lp2025
I464
aI293
aa(lp2026
I714
aI358
aa(lp2027
I642
aI276
aa(lp2028
I440
aI346
aa(lp2029
I153
aI677
aa(lp2030
I401
aI771
aa(lp2031
I42
aI748
aa(lp2032
I200
aI177
aa(lp2033
I821
aI210
aa(lp2034
I943
aI190
aa(lp2035
I444
aI357
aa(lp2036
I46
aI770
aa(lp2037
I402
aI25
aa(lp2038
I613
aI597
aa(lp2039
I180
aI182
aa(lp2040
I782
aI109
aa(lp2041
I622
aI436
aa(lp2042
I782
aI430
aa(lp2043
I856
aI322
aa(lp2044
I467
aI105
aa(lp2045
I702
aI409
aa(lp2046
I288
aI291
aa(lp2047
I819
aI208
aa(lp2048
I698
aI596
aa(lp2049
I39
aI295
aa(lp2050
I177
aI80
aa(lp2051
I553
aI95
aa(lp2052
I851
aI202
aa(lp2053
I77
aI740
aa(lp2054
I805
aI206
aa(lp2055
I242
aI141
aa(lp2056
I72
aI278
aa(lp2057
I262
aI343
aa(lp2058
I217
aI597
aa(lp2059
I924
aI44
aa(lp2060
I221
aI173
aa(lp2061
I417
aI343
aa(lp2062
I314
aI173
aa(lp2063
I853
aI356
aa(lp2064
I574
aI711
aa(lp2065
I614
aI644
aa(lp2066
I605
aI630
aa(lp2067
I605
aI202
aa(lp2068
I214
aI605
aa(lp2069
I284
aI197
aa(lp2070
I839
aI571
aa(lp2071
I275
aI154
aa(lp2072
I756
aI496
aa(lp2073
I875
aI516
aa(lp2074
I534
aI236
aa(lp2075
I498
aI614
aa(lp2076
I623
aI198
aa(lp2077
I30
aI613
aa(lp2078
I692
aI272
aa(lp2079
I775
aI457
aa(lp2080
I184
aI456
aa(lp2081
I188
aI614
aa(lp2082
I468
aI323
aa(lp2083
I424
aI176
aa(lp2084
I256
aI413
aa(lp2085
I320
aI655
aa(lp2086
I541
aI456
aa(lp2087
I141
aI16
aa(lp2088
I738
aI453
aa(lp2089
I321
aI368
aa(lp2090
I872
aI456
aa(lp2091
I112
aI222
aa(lp2092
I898
aI44
aa(lp2093
I144
aI244
aa(lp2094
I976
aI216
aa(lp2095
I442
aI778
aa(lp2096
I666
aI249
aa(lp2097
I609
aI197
aa(lp2098
I747
aI303
aa(lp2099
I326
aI747
aa(lp2100
I951
aI67
aa(lp2101
I700
aI607
aa(lp2102
I810
aI368
aa(lp2103
I46
aI177
aa(lp2104
I283
aI412
aa(lp2105
I978
aI362
aa(lp2106
I574
aI305
aa(lp2107
I867
aI639
aa(lp2108
I737
aI576
aa(lp2109
I759
aI22
aa(lp2110
I325
aI712
aa(lp2111
I434
aI610
aa(lp2112
I608
aI324
aa(lp2113
I120
aI582
aa(lp2114
I328
aI129
aa(lp2115
I595
aI330
aa(lp2116
I157
aI295
aa(lp2117
I742
aI576
aa(lp2118
I692
aI94
aa(lp2119
I796
aI207
aa(lp2120
I145
aI391
aa(lp2121
I26
aI482
aa(lp2122
I2
aI423
aa(lp2123
I621
aI267
aa(lp2124
I111
aI125
aa(lp2125
I87
aI399
aa(lp2126
I885
aI289
aa(lp2127
I295
aI626
aa(lp2128
I601
aI513
aa(lp2129
I301
aI548
aa(lp2130
I168
aI762
aa(lp2131
I692
aI195
aa(lp2132
I427
aI335
aa(lp2133
I920
aI772
aa(lp2134
I222
aI500
aa(lp2135
I137
aI339
aa(lp2136
I294
aI730
aa(lp2137
I832
aI11
aa(lp2138
I775
aI585
aa(lp2139
I544
aI472
aa(lp2140
I17
aI159
aa(lp2141
I854
aI639
aa(lp2142
I463
aI301
aa(lp2143
I114
aI355
aa(lp2144
I81
aI504
aa(lp2145
I547
aI73
aa(lp2146
I762
aI175
aa(lp2147
I399
aI151
aa(lp2148
I704
aI629
aa(lp2149
I381
aI233
aa(lp2150
I161
aI263
aa(lp2151
I531
aI132
aa(lp2152
I502
aI512
aa(lp2153
I323
aI467
aa(lp2154
I236
aI74
aa(lp2155
I67
aI210
aa(lp2156
I265
aI564
aa(lp2157
I535
aI172
aa(lp2158
I209
aI746
aa(lp2159
I37
aI222
aa(lp2160
I975
aI219
aa(lp2161
I833
aI693
aa(lp2162
I29
aI410
aa(lp2163
I527
aI476
aa(lp2164
I93
aI322
aa(lp2165
I408
aI172
aa(lp2166
I45
aI505
aa(lp2167
I447
aI543
aa(lp2168
I164
aI713
aa(lp2169
I319
aI97
aa(lp2170
I243
aI236
aa(lp2171
I598
aI306
aa(lp2172
I26
aI739
aa(lp2173
I507
aI231
aa(lp2174
I188
aI650
aa(lp2175
I750
aI480
aa(lp2176
I121
aI20
aa(lp2177
I82
aI518
aa(lp2178
I198
aI362
aa(lp2179
I168
aI637
aa(lp2180
I190
aI732
aa(lp2181
I834
aI449
aa(lp2182
I460
aI82
aa(lp2183
I612
aI674
aa(lp2184
I309
aI536
aa(lp2185
I855
aI776
aa(lp2186
I854
aI163
aa(lp2187
I160
aI614
aa(lp2188
I307
aI624
aa(lp2189
I478
aI235
aa(lp2190
I325
aI715
aa(lp2191
I214
aI564
aa(lp2192
I503
aI26
aa(lp2193
I761
aI467
aa(lp2194
I221
aI654
aa(lp2195
I187
aI342
aa(lp2196
I950
aI74
aa(lp2197
I842
aI336
aa(lp2198
I379
aI242
aa(lp2199
I848
aI662
aa(lp2200
I506
aI666
aa(lp2201
I127
aI317
aa(lp2202
I582
aI720
aa(lp2203
I474
aI20
aa(lp2204
I822
aI85
aa(lp2205
I792
aI223
aa(lp2206
I307
aI6
aa(lp2207
I718
aI111
aa(lp2208
I746
aI589
aa(lp2209
I20
aI749
aa(lp2210
I947
aI145
aa(lp2211
I878
aI76
aa(lp2212
I522
aI625
aa(lp2213
I592
aI261
aa(lp2214
I237
aI452
aa(lp2215
I522
aI774
aa(lp2216
I157
aI296
aa(lp2217
I674
aI363
aa(lp2218
I900
aI418
aa(lp2219
I642
aI234
aa(lp2220
I302
aI110
aa(lp2221
I87
aI407
aa(lp2222
I547
aI18
aa(lp2223
I952
aI95
aa(lp2224
I31
aI685
aa(lp2225
I69
aI412
aa(lp2226
I71
aI409
aa(lp2227
I877
aI387
aa(lp2228
I250
aI8
aa(lp2229
I701
aI615
aa(lp2230
I776
aI340
aa(lp2231
I954
aI257
aa(lp2232
I380
aI25
aa(lp2233
I970
aI671
aa(lp2234
I598
aI630
aa(lp2235
I974
aI714
aa(lp2236
I576
aI305
aa(lp2237
I33
aI183
aa(lp2238
I409
aI537
aa(lp2239
I456
aI291
aa(lp2240
I307
aI675
aa(lp2241
I98
aI264
aa(lp2242
I507
aI360
aa(lp2243
I209
aI563
aa(lp2244
I839
aI564
aa(lp2245
I552
aI136
aa(lp2246
I124
aI312
aa(lp2247
I22
aI327
aa(lp2248
I145
aI161
aa(lp2249
I505
aI133
aa(lp2250
I368
aI78
aa(lp2251
I429
aI327
aa(lp2252
I107
aI676
aa(lp2253
I784
aI649
aa(lp2254
I75
aI609
aa(lp2255
I25
aI751
aa(lp2256
I556
aI575
aa(lp2257
I199
aI13
aa(lp2258
I690
aI555
aa(lp2259
I417
aI98
aa(lp2260
I673
aI302
aa(lp2261
I969
aI268
aa(lp2262
I845
aI162
aa(lp2263
I749
aI679
aa(lp2264
I194
aI775
aa(lp2265
I807
aI194
aa(lp2266
I658
aI724
aa(lp2267
I634
aI204
aa(lp2268
I16
aI96
aa(lp2269
I194
aI316
aa(lp2270
I906
aI647
aa(lp2271
I101
aI285
aa(lp2272
I313
aI530
aa(lp2273
I665
aI349
aa(lp2274
I904
aI525
aa(lp2275
I84
aI191
aa(lp2276
I38
aI211
aa(lp2277
I172
aI593
aa(lp2278
I822
aI417
aa(lp2279
I31
aI401
aa(lp2280
I274
aI445
aa(lp2281
I327
aI290
aa(lp2282
I691
aI128
aa(lp2283
I480
aI780
aa(lp2284
I658
aI772
aa(lp2285
I893
aI452
aa(lp2286
I10
aI601
aa(lp2287
I731
aI29
aa(lp2288
I213
aI615
aa(lp2289
I231
aI760
aa(lp2290
I170
aI717
aa(lp2291
I258
aI160
aa(lp2292
I892
aI27
aa(lp2293
I664
aI688
aa(lp2294
I754
aI281
aa(lp2295
I705
aI25
aa(lp2296
I336
aI611
aa(lp2297
I110
aI685
aa(lp2298
I617
aI582
aa(lp2299
I61
aI293
aa(lp2300
I960
aI565
aa(lp2301
I163
aI175
aa(lp2302
I94
aI663
aa(lp2303
I468
aI208
aa(lp2304
I175
aI409
aa(lp2305
I820
aI656
aa(lp2306
I144
aI507
aa(lp2307
I8
aI3
aa(lp2308
I54
aI208
aa(lp2309
I313
aI773
aa(lp2310
I965
aI631
aa(lp2311
I236
aI367
aa(lp2312
I22
aI504
aa(lp2313
I333
aI687
aa(lp2314
I10
aI562
aa(lp2315
I89
aI117
aa(lp2316
I317
aI275
aa(lp2317
I321
aI195
aa(lp2318
I329
aI470
aa(lp2319
I426
aI642
aa(lp2320
I519
aI300
aa(lp2321
I661
aI325
aa(lp2322
I342
aI206
aa(lp2323
I595
aI211
aa(lp2324
I971
aI354
aa(lp2325
I306
aI413
aa(lp2326
I961
aI373
aa(lp2327
I974
aI273
aa(lp2328
I246
aI567
aa(lp2329
I105
aI667
aa(lp2330
I258
aI280
aa(lp2331
I797
aI732
aa(lp2332
I306
aI359
aa(lp2333
I251
aI685
aa(lp2334
I667
aI490
aa(lp2335
I615
aI296
aa(lp2336
I624
aI201
aa(lp2337
I397
aI633
aa(lp2338
I295
aI698
aa(lp2339
I964
aI713
aa(lp2340
I639
aI333
aa(lp2341
I674
aI248
aa(lp2342
I65
aI78
aa(lp2343
I113
aI749
aa(lp2344
I587
aI472
aa(lp2345
I647
aI132
aa(lp2346
I120
aI374
aa(lp2347
I837
aI718
aa(lp2348
I58
aI597
aa(lp2349
I193
aI390
aa(lp2350
I787
aI13
aa(lp2351
I200
aI15
aa(lp2352
I45
aI254
aa(lp2353
I286
aI173
aa(lp2354
I870
aI477
aa(lp2355
I763
aI37
aa(lp2356
I82
aI219
aa(lp2357
I820
aI332
aa(lp2358
I441
aI79
aa(lp2359
I834
aI334
aa(lp2360
I972
aI383
aa(lp2361
I23
aI76
aa(lp2362
I5
aI663
aa(lp2363
I570
aI182
aa(lp2364
I281
aI310
aa(lp2365
I220
aI373
aa(lp2366
I117
aI201
aa(lp2367
I962
aI267
aa(lp2368
I212
aI525
aa(lp2369
I202
aI292
aa(lp2370
I369
aI100
aa(lp2371
I614
aI688
aa(lp2372
I137
aI730
aa(lp2373
I207
aI509
aa(lp2374
I710
aI579
aa(lp2375
I106
aI173
aa(lp2376
I521
aI312
aa(lp2377
I201
aI4
aa(lp2378
I326
aI449
aa(lp2379
I604
aI431
aa(lp2380
I843
aI281
aa(lp2381
I157
aI330
aa(lp2382
I332
aI326
aa(lp2383
I357
aI230
aa(lp2384
I779
aI197
aa(lp2385
I836
aI350
aa(lp2386
I209
aI739
aa(lp2387
I811
aI678
aa(lp2388
I215
aI628
aa(lp2389
I287
aI185
aa(lp2390
I56
aI217
aa(lp2391
I229
aI483
aa(lp2392
I61
aI348
aa(lp2393
I438
aI623
aa(lp2394
I848
aI193
aa(lp2395
I539
aI356
aa(lp2396
I755
aI418
aa(lp2397
I817
aI721
aa(lp2398
I205
aI382
aa(lp2399
I312
aI11
aa(lp2400
I141
aI602
aa(lp2401
I831
aI439
aa(lp2402
I94
aI220
aa(lp2403
I912
aI594
aa(lp2404
I336
aI290
aa(lp2405
I136
aI198
aa(lp2406
I290
aI473
aa(lp2407
I617
aI95
aa(lp2408
I47
aI476
aa(lp2409
I449
aI334
aa(lp2410
I37
aI14
aa(lp2411
I704
aI244
aa(lp2412
I798
aI310
aa(lp2413
I151
aI446
aa(lp2414
I171
aI349
aa(lp2415
I498
aI13
aa(lp2416
I100
aI684
aa(lp2417
I682
aI502
aa(lp2418
I638
aI696
aa(lp2419
I913
aI666
aa(lp2420
I660
aI167
aa(lp2421
I17
aI588
aa(lp2422
I93
aI270
aa(lp2423
I72
aI715
aa(lp2424
I610
aI478
aa(lp2425
I107
aI10
aa(lp2426
I283
aI392
aa(lp2427
I159
aI490
aa(lp2428
I480
aI507
aa(lp2429
I451
aI337
aa(lp2430
I778
aI559
aa(lp2431
I212
aI462
aa(lp2432
I815
aI779
aa(lp2433
I181
aI252
aa(lp2434
I454
aI376
aa(lp2435
I896
aI591
aa(lp2436
I14
aI769
aa(lp2437
I212
aI520
aa(lp2438
I169
aI446
aa(lp2439
I465
aI117
aa(lp2440
I972
aI32
aa(lp2441
I969
aI196
aa(lp2442
I544
aI215
aa(lp2443
I903
aI372
aa(lp2444
I330
aI275
aa(lp2445
I566
aI434
aa(lp2446
I404
aI493
aa(lp2447
I541
aI448
aa(lp2448
I250
aI762
aa(lp2449
I603
aI437
aa(lp2450
I970
aI97
aa(lp2451
I842
aI309
aa(lp2452
I127
aI447
aa(lp2453
I893
aI659
aa(lp2454
I911
aI54
aa(lp2455
I293
aI377
aa(lp2456
I124
aI460
aa(lp2457
I556
aI661
aa(lp2458
I887
aI673
aa(lp2459
I255
aI541
aa(lp2460
I699
aI697
aa(lp2461
I760
aI27
aa(lp2462
I270
aI149
aa(lp2463
I10
aI564
aa(lp2464
I857
aI497
aa(lp2465
I609
aI352
aa(lp2466
I239
aI268
aa(lp2467
I689
aI341
aa(lp2468
I734
aI444
aa(lp2469
I312
aI23
aa(lp2470
I238
aI501
aa(lp2471
I793
aI99
aa(lp2472
I621
aI595
aa(lp2473
I663
aI288
aa(lp2474
I131
aI83
aa(lp2475
I282
aI500
aa(lp2476
I803
aI444
aa(lp2477
I466
aI554
aa(lp2478
I513
aI728
aa(lp2479
I964
aI613
aa(lp2480
I275
aI13
aa(lp2481
I614
aI691
aa(lp2482
I894
aI523
aa(lp2483
I655
aI23
aa(lp2484
I140
aI260
aa(lp2485
I548
aI228
aa(lp2486
I671
aI407
aa(lp2487
I749
aI425
aa(lp2488
I703
aI267
aa(lp2489
I574
aI623
aa(lp2490
I320
aI676
aa(lp2491
I760
aI350
aa(lp2492
I148
aI157
aa(lp2493
I657
aI714
aa(lp2494
I910
aI97
aa(lp2495
I448
aI484
aa(lp2496
I751
aI584
aa(lp2497
I82
aI344
aa(lp2498
I766
aI447
aa(lp2499
I682
aI111
aa(lp2500
I803
aI280
aa(lp2501
I900
aI54
aa(lp2502
I959
aI281
aa(lp2503
I781
aI643
aa(lp2504
I312
aI262
aa(lp2505
I122
aI761
aa(lp2506
I224
aI769
aa(lp2507
I779
aI597
aa(lp2508
I68
aI564
aa(lp2509
I635
aI125
aa(lp2510
I553
aI329
aa(lp2511
I648
aI596
aa(lp2512
I745
aI495
aa(lp2513
I12
aI155
aa(lp2514
I239
aI513
aa(lp2515
I871
aI155
aa(lp2516
I839
aI347
aa(lp2517
I224
aI22
aa(lp2518
I674
aI426
aa(lp2519
I881
aI449
aa(lp2520
I439
aI88
aa(lp2521
I860
aI351
aa(lp2522
I606
aI663
aa(lp2523
I15
aI646
aa(lp2524
I738
aI699
aa(lp2525
I252
aI20
aa(lp2526
I147
aI225
aa(lp2527
I457
aI549
aa(lp2528
I159
aI412
aa(lp2529
I65
aI398
aa(lp2530
I189
aI602
aa(lp2531
I583
aI497
aa(lp2532
I782
aI507
aa(lp2533
I954
aI272
aa(lp2534
I282
aI425
aa(lp2535
I958
aI206
aa(lp2536
I313
aI691
aa(lp2537
I741
aI574
aa(lp2538
I85
aI163
aa(lp2539
I358
aI81
aa(lp2540
I820
aI603
aa(lp2541
I198
aI197
aa(lp2542
I71
aI758
aa(lp2543
I281
aI366
aa(lp2544
I280
aI333
aa(lp2545
I842
aI673
aa(lp2546
I221
aI345
aa(lp2547
I774
aI137
aa(lp2548
I408
aI176
aa(lp2549
I520
aI629
aa(lp2550
I70
aI187
aa(lp2551
I907
aI708
aa(lp2552
I125
aI132
aa(lp2553
I194
aI495
aa(lp2554
I858
aI482
aa(lp2555
I908
aI167
aa(lp2556
I108
aI492
aa(lp2557
I214
aI352
aa(lp2558
I510
aI18
aa(lp2559
I25
aI492
aa(lp2560
I657
aI261
aa(lp2561
I82
aI570
aa(lp2562
I371
aI167
aa(lp2563
I290
aI769
aa(lp2564
I820
aI294
aa(lp2565
I469
aI109
aa(lp2566
I678
aI435
aa(lp2567
I71
aI393
aa(lp2568
I317
aI155
aa(lp2569
I319
aI584
aa(lp2570
I686
aI298
aa(lp2571
I238
aI513
aa(lp2572
I501
aI223
aa(lp2573
I491
aI288
aa(lp2574
I825
aI395
aa(lp2575
I974
aI377
aa(lp2576
I237
aI410
aa(lp2577
I170
aI128
aa(lp2578
I769
aI697
aa(lp2579
I587
aI570
aa(lp2580
I975
aI257
aa(lp2581
I236
aI132
aa(lp2582
I718
aI391
aa(lp2583
I662
aI335
aa(lp2584
I559
aI634
aa(lp2585
I8
aI381
aa(lp2586
I668
aI256
aa(lp2587
I924
aI67
aa(lp2588
I131
aI455
aa(lp2589
I573
aI248
aa(lp2590
I116
aI124
aa(lp2591
I636
aI573
aa(lp2592
I164
aI341
aa(lp2593
I644
aI597
aa(lp2594
I235
aI752
aa(lp2595
I647
aI389
aa(lp2596
I168
aI302
aa(lp2597
I456
aI519
aa(lp2598
I790
aI655
aa(lp2599
I882
aI342
aa(lp2600
I938
aI61
aa(lp2601
I291
aI247
aa(lp2602
I928
aI159
aa(lp2603
I315
aI353
aa(lp2604
I403
aI322
aa(lp2605
I717
aI706
aa(lp2606
I430
aI204
aa(lp2607
I193
aI360
aa(lp2608
I787
aI78
aa(lp2609
I313
aI522
aa(lp2610
I553
aI502
aa(lp2611
I845
aI328
aa(lp2612
I663
aI391
aa(lp2613
I626
aI89
aa(lp2614
I470
aI26
aa(lp2615
I140
aI345
aa(lp2616
I104
aI424
aa(lp2617
I525
aI121
aa(lp2618
I249
aI583
aa(lp2619
I529
aI238
aa(lp2620
I452
aI488
aa(lp2621
I829
aI701
aa(lp2622
I911
aI148
aa(lp2623
I896
aI700
aa(lp2624
I849
aI520
aa(lp2625
I614
aI429
aa(lp2626
I578
aI147
aa(lp2627
I359
aI85
aa(lp2628
I394
aI187
aa(lp2629
I340
aI229
aa(lp2630
I931
aI149
aa(lp2631
I459
aI124
aa(lp2632
I308
aI752
aa(lp2633
I214
aI581
aa(lp2634
I283
aI301
aa(lp2635
I37
aI445
aa(lp2636
I831
aI373
aa(lp2637
I647
aI625
aa(lp2638
I566
aI83
aa(lp2639
I885
aI436
aa(lp2640
I466
aI147
aa(lp2641
I557
aI691
aa(lp2642
I406
aI539
aa(lp2643
I639
aI550
aa(lp2644
I141
aI500
aa(lp2645
I859
aI638
aa(lp2646
I288
aI20
aa(lp2647
I861
aI405
aa(lp2648
I845
aI555
aa(lp2649
I250
aI76
aa(lp2650
I237
aI758
aa(lp2651
I414
aI93
aa(lp2652
I614
aI237
aa(lp2653
I32
aI781
aa(lp2654
I158
aI112
aa(lp2655
I87
aI146
aa(lp2656
I961
aI746
aa(lp2657
I565
aI254
aa(lp2658
I67
aI397
aa(lp2659
I798
aI490
aa(lp2660
I586
aI122
aa(lp2661
I280
aI540
aa(lp2662
I242
aI574
aa(lp2663
I178
aI419
aa(lp2664
I961
aI597
aa(lp2665
I442
aI654
aa(lp2666
I667
aI351
aa(lp2667
I362
aI100
aa(lp2668
I114
aI736
aa(lp2669
I661
aI489
aa(lp2670
I450
aI317
aa(lp2671
I591
aI188
aa(lp2672
I841
aI724
aa(lp2673
I267
aI258
aa(lp2674
I543
aI596
aa(lp2675
I846
aI479
aa(lp2676
I852
aI675
aa(lp2677
I82
aI597
aa(lp2678
I560
aI644
aa(lp2679
I597
aI721
aa(lp2680
I478
aI238
aa(lp2681
I46
aI590
aa(lp2682
I743
aI509
aa(lp2683
I911
aI174
aa(lp2684
I331
aI386
aa(lp2685
I45
aI752
aa(lp2686
I407
aI7
aa(lp2687
I231
aI170
aa(lp2688
I220
aI681
aa(lp2689
I767
aI696
aa(lp2690
I941
aI223
aa(lp2691
I80
aI567
aa(lp2692
I869
aI467
aa(lp2693
I527
aI484
aa(lp2694
I30
aI95
aa(lp2695
I46
aI13
aa(lp2696
I291
aI204
aa(lp2697
I293
aI215
aa(lp2698
I187
aI500
aa(lp2699
I706
aI273
aa(lp2700
I762
aI28
aa(lp2701
I713
aI182
aa(lp2702
I203
aI343
aa(lp2703
I120
aI121
aa(lp2704
I61
aI515
aa(lp2705
I47
aI518
aa(lp2706
I270
aI520
aa(lp2707
I182
aI740
aa(lp2708
I908
aI11
aa(lp2709
I674
aI307
aa(lp2710
I292
aI327
aa(lp2711
I855
aI328
aa(lp2712
I417
aI186
aa(lp2713
I214
aI99
aa(lp2714
I234
aI147
aa(lp2715
I903
aI222
aa(lp2716
I227
aI258
aa(lp2717
I387
aI9
aa(lp2718
I502
aI592
aa(lp2719
I369
aI773
aa(lp2720
I7
aI473
aa(lp2721
I874
aI213
aa(lp2722
I308
aI585
aa(lp2723
I291
aI495
aa(lp2724
I904
aI713
aa(lp2725
I340
aI204
aa(lp2726
I973
aI662
aa(lp2727
I122
aI497
aa(lp2728
I29
aI394
aa(lp2729
I474
aI131
aa(lp2730
I568
aI276
aa(lp2731
I419
aI406
aa(lp2732
I842
aI659
aa(lp2733
I968
aI541
aa(lp2734
I92
aI615
aa(lp2735
I832
aI399
aa(lp2736
I778
aI217
aa(lp2737
I910
aI526
aa(lp2738
I82
aI426
aa(lp2739
I970
aI686
aa(lp2740
I369
aI123
aa(lp2741
I598
aI201
aa(lp2742
I397
aI79
aa(lp2743
I626
aI475
aa(lp2744
I402
aI503
aa(lp2745
I546
aI93
aa(lp2746
I437
aI129
aa(lp2747
I131
aI168
aa(lp2748
I363
aI186
aa(lp2749
I689
aI701
aa(lp2750
I475
aI509
aa(lp2751
I909
aI375
aa(lp2752
I511
aI368
aa(lp2753
I361
aI88
aa(lp2754
I178
aI10
aa(lp2755
I450
aI28
aa(lp2756
I488
aI240
aa(lp2757
I755
aI716
aa(lp2758
I586
aI557
aa(lp2759
I687
aI131
aa(lp2760
I837
aI412
aa(lp2761
I786
aI779
aa(lp2762
I803
aI673
aa(lp2763
I298
aI549
aa(lp2764
I414
aI607
aa(lp2765
I466
aI122
aa(lp2766
I175
aI697
aa(lp2767
I434
aI609
aa(lp2768
I199
aI303
aa(lp2769
I215
aI771
aa(lp2770
I959
aI622
aa(lp2771
I155
aI101
aa(lp2772
I826
aI169
aa(lp2773
I872
aI83
aa(lp2774
I261
aI770
aa(lp2775
I137
aI571
aa(lp2776
I279
aI651
aa(lp2777
I302
aI174
aa(lp2778
I41
aI2
aa(lp2779
I531
aI776
aa(lp2780
I176
aI614
aa(lp2781
I679
aI246
aa(lp2782
I314
aI753
aa(lp2783
I246
aI687
aa(lp2784
I782
aI491
aa(lp2785
I7
aI697
aa(lp2786
I861
aI659
aa(lp2787
I895
aI730
aa(lp2788
I678
aI28
aa(lp2789
I862
aI41
aa(lp2790
I968
aI18
aa(lp2791
I307
aI186
aa(lp2792
I748
aI322
aa(lp2793
I772
aI353
aa(lp2794
I252
aI598
aa(lp2795
I267
aI570
aa(lp2796
I553
aI719
aa(lp2797
I116
aI374
aa(lp2798
I673
aI128
aa(lp2799
I614
aI179
aa(lp2800
I626
aI673
aa(lp2801
I749
aI564
aa(lp2802
I211
aI23
aa(lp2803
I293
aI322
aa(lp2804
I321
aI376
aa(lp2805
I306
aI348
aa(lp2806
I264
aI86
aa(lp2807
I29
aI682
aa(lp2808
I134
aI427
aa(lp2809
I603
aI296
aa(lp2810
I815
aI222
aa(lp2811
I687
aI603
aa(lp2812
I634
aI299
aa(lp2813
I856
aI770
aa(lp2814
I446
aI87
aa(lp2815
I629
aI142
aa(lp2816
I207
aI345
aa(lp2817
I954
aI632
aa(lp2818
I97
aI359
aa(lp2819
I30
aI612
aa(lp2820
I134
aI614
aa(lp2821
I755
aI319
aa(lp2822
I81
aI157
aa(lp2823
I130
aI131
aa(lp2824
I901
aI358
aa(lp2825
I48
aI491
aa(lp2826
I435
aI161
aa(lp2827
I690
aI131
aa(lp2828
I301
aI661
aa(lp2829
I86
aI305
aa(lp2830
I278
aI330
aa(lp2831
I588
aI275
aa(lp2832
I456
aI300
aa(lp2833
I786
aI67
aa(lp2834
I503
aI337
aa(lp2835
I174
aI180
aa(lp2836
I182
aI495
aa(lp2837
I102
aI521
aa(lp2838
I328
aI476
aa(lp2839
I173
aI602
aa(lp2840
I396
aI467
aa(lp2841
I796
aI376
aa(lp2842
I203
aI315
aa(lp2843
I39
aI450
aa(lp2844
I629
aI390
aa(lp2845
I30
aI176
aa(lp2846
I700
aI445
aa(lp2847
I851
aI98
aa(lp2848
I667
aI632
aa(lp2849
I975
aI41
aa(lp2850
I894
aI3
aa(lp2851
I275
aI315
aa(lp2852
I526
aI727
aa(lp2853
I95
aI129
aa(lp2854
I206
aI546
aa(lp2855
I931
aI197
aa(lp2856
I275
aI609
aa(lp2857
I100
aI479
aa(lp2858
I131
aI262
aa(lp2859
I158
aI326
aa(lp2860
I724
aI475
aa(lp2861
I307
aI286
aa(lp2862
I184
aI291
aa(lp2863
I704
aI279
aa(lp2864
I184
aI136
aa(lp2865
I156
aI204
aa(lp2866
I514
aI779
aa(lp2867
I714
aI597
aa(lp2868
I878
aI39
aa(lp2869
I751
aI772
aa(lp2870
I285
aI176
aa(lp2871
I193
aI577
aa(lp2872
I856
aI616
aa(lp2873
I443
aI9
aa(lp2874
I219
aI550
aa(lp2875
I615
aI567
aa(lp2876
I941
aI24
aa(lp2877
I377
aI476
aa(lp2878
I773
aI220
aa(lp2879
I385
aI395
aa(lp2880
I29
aI655
aa(lp2881
I819
aI27
aa(lp2882
I265
aI450
aa(lp2883
I288
aI5
aa(lp2884
I204
aI732
aa(lp2885
I746
aI770
aa(lp2886
I194
aI558
aa(lp2887
I451
aI205
aa(lp2888
I259
aI385
aa(lp2889
I195
aI200
aa(lp2890
I56
aI80
aa(lp2891
I247
aI617
aa(lp2892
I151
aI209
aa(lp2893
I452
aI380
aa(lp2894
I583
aI473
aa(lp2895
I541
aI367
aa(lp2896
I356
aI116
aa(lp2897
I650
aI774
aa(lp2898
I860
aI648
aa(lp2899
I684
aI569
aa(lp2900
I718
aI170
aa(lp2901
I629
aI325
aa(lp2902
I269
aI139
aa(lp2903
I828
aI129
aa(lp2904
I108
aI312
aa(lp2905
I900
aI360
aa(lp2906
I108
aI496
aa(lp2907
I961
aI547
aa(lp2908
I412
aI137
aa(lp2909
I848
aI12
aa(lp2910
I444
aI560
aa(lp2911
I263
aI663
aa(lp2912
I392
aI329
aa(lp2913
I189
aI124
aa(lp2914
I685
aI410
aa(lp2915
I473
aI131
aa(lp2916
I203
aI239
aa(lp2917
I850
aI151
aa(lp2918
I824
aI383
aa(lp2919
I27
aI229
aa(lp2920
I168
aI115
aa(lp2921
I547
aI623
aa(lp2922
I109
aI431
aa(lp2923
I318
aI355
aa(lp2924
I140
aI583
aa(lp2925
I189
aI612
aa(lp2926
I287
aI774
aa(lp2927
I771
aI340
aa(lp2928
I797
aI717
aa(lp2929
I283
aI536
aa(lp2930
I434
aI500
aa(lp2931
I296
aI320
aa(lp2932
I688
aI488
aa(lp2933
I540
aI477
aa(lp2934
I148
aI766
aa(lp2935
I370
aI185
aa(lp2936
I323
aI7
aa(lp2937
I154
aI438
aa(lp2938
I691
aI114
aa(lp2939
I456
aI610
aa(lp2940
I262
aI615
aa(lp2941
I331
aI118
aa(lp2942
I209
aI323
aa(lp2943
I102
aI413
aa(lp2944
I834
aI475
aa(lp2945
I317
aI561
aa(lp2946
I394
aI457
aa(lp2947
I825
aI414
aa(lp2948
I289
aI496
aa(lp2949
I573
aI783
aa(lp2950
I153
aI272
aa(lp2951
I152
aI407
aa(lp2952
I818
aI109
aa(lp2953
I555
aI24
aa(lp2954
I554
aI197
aa(lp2955
I683
aI15
aa(lp2956
I427
aI176
aa(lp2957
I504
aI383
aa(lp2958
I851
aI208
aa(lp2959
I527
aI296
aa(lp2960
I113
aI605
aa(lp2961
I155
aI755
aa(lp2962
I556
aI436
aa(lp2963
I544
aI332
aa(lp2964
I49
aI25
aa(lp2965
I389
aI3
aa(lp2966
I796
aI167
aa(lp2967
I636
aI306
aa(lp2968
I261
aI297
aa(lp2969
I909
aI599
aa(lp2970
I700
aI657
aa(lp2971
I65
aI337
aa(lp2972
I638
aI614
aa(lp2973
I134
aI132
aa(lp2974
I834
aI444
aa(lp2975
I398
aI178
aa(lp2976
I35
aI580
aa(lp2977
I904
aI71
aa(lp2978
I107
aI412
aa(lp2979
I208
aI482
aa(lp2980
I335
aI108
aa(lp2981
I182
aI375
aa(lp2982
I401
aI316
aa(lp2983
I551
aI94
aa(lp2984
I154
aI586
aa(lp2985
I504
aI630
aa(lp2986
I458
aI142
aa(lp2987
I212
aI747
aa(lp2988
I157
aI620
aa(lp2989
I215
aI566
aa(lp2990
I323
aI354
aa(lp2991
I392
aI601
aa(lp2992
I869
aI585
aa(lp2993
I201
aI568
aa(lp2994
I509
aI320
aa(lp2995
I966
aI4
aa(lp2996
I673
aI268
aa(lp2997
I862
aI77
aa(lp2998
I146
aI82
aa(lp2999
I816
aI572
aa(lp3000
I460
aI651
aa(lp3001
I285
aI679
aa(lp3002
I934
aI20
aa(lp3003
I100
aI123
aa(lp3004
I308
aI733
aa(lp3005
I876
aI647
aa(lp3006
I149
aI443
aa(lp3007
I175
aI412
aa(lp3008
I894
aI585
aa(lp3009
I774
aI605
aa(lp3010
I587
aI81
aa(lp3011
I299
aI146
aa(lp3012
I242
aI522
aa(lp3013
I906
aI329
aa(lp3014
I956
aI196
aa(lp3015
I316
aI428
aa(lp3016
I846
aI185
aa(lp3017
I192
aI593
aa(lp3018
I162
aI410
aa(lp3019
I633
aI25
aa(lp3020
I330
aI470
aa(lp3021
I912
aI74
aa(lp3022
I810
aI719
aa(lp3023
I183
aI775
aa(lp3024
I585
aI664
aa(lp3025
I834
aI595
aa(lp3026
I638
aI689
aa(lp3027
I326
aI188
aa(lp3028
I970
aI249
aa(lp3029
I758
aI355
aa(lp3030
I417
aI325
aa(lp3031
I659
aI351
aa(lp3032
I129
aI215
aa(lp3033
I258
aI644
aa(lp3034
I408
aI310
aa(lp3035
I643
aI491
aa(lp3036
I108
aI119
aa(lp3037
I488
aI134
aa(lp3038
I300
aI470
aa(lp3039
I538
aI303
aa(lp3040
I73
aI367
aa(lp3041
I770
aI497
aa(lp3042
I431
aI128
aa(lp3043
I569
aI677
aa(lp3044
I52
aI509
aa(lp3045
I807
aI393
aa(lp3046
I246
aI219
aa(lp3047
I267
aI253
aa(lp3048
I426
aI579
aa(lp3049
I550
aI306
aa(lp3050
I864
aI110
aa(lp3051
I386
aI105
aa(lp3052
I397
aI636
aa(lp3053
I957
aI180
aa(lp3054
I233
aI507
aa(lp3055
I233
aI156
aa(lp3056
I542
aI700
aa(lp3057
I641
aI351
aa(lp3058
I833
aI155
aa(lp3059
I82
aI299
aa(lp3060
I671
aI697
aa(lp3061
I963
aI13
aa(lp3062
I828
aI291
aa(lp3063
I83
aI115
aa(lp3064
I789
aI203
aa(lp3065
I43
aI433
aa(lp3066
I40
aI546
aa(lp3067
I641
aI310
aa(lp3068
I14
aI693
aa(lp3069
I546
aI491
aa(lp3070
I309
aI362
aa(lp3071
I335
aI493
aa(lp3072
I747
aI690
aa(lp3073
I31
aI428
aa(lp3074
I685
aI100
aa(lp3075
I7
aI413
aa(lp3076
I169
aI498
aa(lp3077
I685
aI75
aa(lp3078
I555
aI194
aa(lp3079
I61
aI588
aa(lp3080
I863
aI342
aa(lp3081
I288
aI158
aa(lp3082
I187
aI153
aa(lp3083
I6
aI727
aa(lp3084
I568
aI98
aa(lp3085
I826
aI188
aa(lp3086
I531
aI135
aa(lp3087
I246
aI368
aa(lp3088
I87
aI681
aa(lp3089
I866
aI280
aa(lp3090
I154
aI766
aa(lp3091
I13
aI709
aa(lp3092
I429
aI340
aa(lp3093
I579
aI335
aa(lp3094
I822
aI365
aa(lp3095
I788
aI590
aa(lp3096
I557
aI180
aa(lp3097
I43
aI181
aa(lp3098
I29
aI96
aa(lp3099
I189
aI232
aa(lp3100
I725
aI277
aa(lp3101
I632
aI648
aa(lp3102
I863
aI481
aa(lp3103
I169
aI310
aa(lp3104
I332
aI475
aa(lp3105
I308
aI472
aa(lp3106
I292
aI527
aa(lp3107
I143
aI336
aa(lp3108
I388
aI509
aa(lp3109
I550
aI119
aa(lp3110
I619
aI213
aa(lp3111
I204
aI156
aa(lp3112
I782
aI712
aa(lp3113
I695
aI223
aa(lp3114
I599
aI124
aa(lp3115
I629
aI155
aa(lp3116
I202
aI401
aa(lp3117
I619
aI131
aa(lp3118
I646
aI189
aa(lp3119
I602
aI465
aa(lp3120
I703
aI418
aa(lp3121
I866
aI89
aa(lp3122
I581
aI128
aa(lp3123
I831
aI630
aa(lp3124
I380
aI295
aa(lp3125
I659
aI420
aa(lp3126
I755
aI26
aa(lp3127
I601
aI91
aa(lp3128
I659
aI121
aa(lp3129
I810
aI585
aa(lp3130
I217
aI770
aa(lp3131
I129
aI146
aa(lp3132
I514
aI452
aa(lp3133
I579
aI157
aa(lp3134
I33
aI167
aa(lp3135
I956
aI755
aa(lp3136
I153
aI628
aa(lp3137
I239
aI538
aa(lp3138
I506
aI96
aa(lp3139
I680
aI74
aa(lp3140
I959
aI622
aa(lp3141
I15
aI719
aa(lp3142
I702
aI580
aa(lp3143
I803
aI692
aa(lp3144
I266
aI705
aa(lp3145
I305
aI174
aa(lp3146
I141
aI696
aa(lp3147
I785
aI220
aa(lp3148
I705
aI509
aa(lp3149
I921
aI134
aa(lp3150
I117
aI294
aa(lp3151
I388
aI627
aa(lp3152
I787
aI95
aa(lp3153
I318
aI408
aa(lp3154
I313
aI722
aa(lp3155
I193
aI416
aa(lp3156
I778
aI10
aa(lp3157
I610
aI449
aa(lp3158
I950
aI783
aa(lp3159
I914
aI728
aa(lp3160
I903
aI174
aa(lp3161
I236
aI534
aa(lp3162
I515
aI688
aa(lp3163
I243
aI607
aa(lp3164
I639
aI192
aa(lp3165
I962
aI695
aa(lp3166
I475
aI485
aa(lp3167
I129
aI629
aa(lp3168
I409
aI199
aa(lp3169
I129
aI253
aa(lp3170
I307
aI172
aa(lp3171
I533
aI711
aa(lp3172
I64
aI539
aa(lp3173
I227
aI598
aa(lp3174
I633
aI8
aa(lp3175
I898
aI417
aa(lp3176
I120
aI350
aa(lp3177
I214
aI335
aa(lp3178
I652
aI402
aa(lp3179
I975
aI142
aa(lp3180
I64
aI758
aa(lp3181
I305
aI477
aa(lp3182
I201
aI265
aa(lp3183
I285
aI268
aa(lp3184
I183
aI712
aa(lp3185
I235
aI210
aa(lp3186
I695
aI460
aa(lp3187
I897
aI399
aa(lp3188
I477
aI171
aa(lp3189
I712
aI464
aa(lp3190
I163
aI414
aa(lp3191
I303
aI702
aa(lp3192
I919
aI128
aa(lp3193
I597
aI190
aa(lp3194
I720
aI277
aa(lp3195
I654
aI478
aa(lp3196
I128
aI233
aa(lp3197
I275
aI91
aa(lp3198
I553
aI773
aa(lp3199
I814
aI705
aa(lp3200
I67
aI243
aa(lp3201
I935
aI63
aa(lp3202
I517
aI214
aa(lp3203
I892
aI221
aa(lp3204
I704
aI636
aa(lp3205
I124
aI618
aa(lp3206
I823
aI553
aa(lp3207
I148
aI467
aa(lp3208
I974
aI168
aa(lp3209
I932
aI206
aa(lp3210
I230
aI658
aa(lp3211
I430
aI235
aa(lp3212
I237
aI734
aa(lp3213
I631
aI493
aa(lp3214
I241
aI186
aa(lp3215
I133
aI471
aa(lp3216
I169
aI175
aa(lp3217
I235
aI598
aa(lp3218
I199
aI647
aa(lp3219
I267
aI121
aa(lp3220
I438
aI235
aa(lp3221
I743
aI475
aa(lp3222
I213
aI761
aa(lp3223
I63
aI561
aa(lp3224
I764
aI557
aa(lp3225
I577
aI300
aa(lp3226
I41
aI512
aa(lp3227
I79
aI136
aa(lp3228
I701
aI266
aa(lp3229
I697
aI559
aa(lp3230
I949
aI153
aa(lp3231
I682
aI89
aa(lp3232
I595
aI145
aa(lp3233
I539
aI201
aa(lp3234
I83
aI160
aa(lp3235
I10
aI45
aa(lp3236
I624
aI577
aa(lp3237
I86
aI409
aa(lp3238
I889
aI341
aa(lp3239
I642
aI147
aa(lp3240
I897
aI219
aa(lp3241
I703
aI182
aa(lp3242
I19
aI562
aa(lp3243
I681
aI406
aa(lp3244
I847
aI714
aa(lp3245
I477
aI295
aa(lp3246
I157
aI511
aa(lp3247
I828
aI447
aa(lp3248
I348
aI225
aa(lp3249
I370
aI91
aa(lp3250
I585
aI29
aa(lp3251
I9
aI75
aa(lp3252
I669
aI376
aa(lp3253
I230
aI225
aa(lp3254
I301
aI533
aa(lp3255
I229
aI630
aa(lp3256
I666
aI272
aa(lp3257
I619
aI248
aa(lp3258
I158
aI313
aa(lp3259
I785
aI69
aa(lp3260
I408
aI123
aa(lp3261
I831
aI352
aa(lp3262
I747
aI441
aa(lp3263
I706
aI74
aa(lp3264
I327
aI301
aa(lp3265
I595
aI25
aa(lp3266
I428
aI646
aa(lp3267
I95
aI229
aa(lp3268
I120
aI237
aa(lp3269
I339
aI83
aa(lp3270
I901
aI561
aa(lp3271
I900
aI11
aa(lp3272
I25
aI629
aa(lp3273
I63
aI604
aa(lp3274
I233
aI468
aa(lp3275
I899
aI586
aa(lp3276
I894
aI620
aa(lp3277
I257
aI374
aa(lp3278
I150
aI386
aa(lp3279
I634
aI631
aa(lp3280
I103
aI374
aa(lp3281
I38
aI477
aa(lp3282
I162
aI223
aa(lp3283
I650
aI612
aa(lp3284
I651
aI721
aa(lp3285
I830
aI515
aa(lp3286
I498
aI552
aa(lp3287
I518
aI325
aa(lp3288
I333
aI776
aa(lp3289
I747
aI303
aa(lp3290
I453
aI293
aa(lp3291
I614
aI28
aa(lp3292
I220
aI709
aa(lp3293
I192
aI491
aa(lp3294
I814
aI154
aa(lp3295
I197
aI445
aa(lp3296
I875
aI775
aa(lp3297
I63
aI695
aa(lp3298
I528
aI496
aa(lp3299
I255
aI533
aa(lp3300
I141
aI241
aa(lp3301
I959
aI106
aa(lp3302
I723
aI567
aa(lp3303
I136
aI584
aa(lp3304
I942
aI71
aa(lp3305
I263
aI653
aa(lp3306
I58
aI378
aa(lp3307
I87
aI426
aa(lp3308
I887
aI306
aa(lp3309
I179
aI202
aa(lp3310
I482
aI313
aa(lp3311
I267
aI93
aa(lp3312
I231
aI630
aa(lp3313
I733
aI517
aa(lp3314
I111
aI605
aa(lp3315
I570
aI452
aa(lp3316
I737
aI719
aa(lp3317
I303
aI182
aa(lp3318
I867
aI652
aa(lp3319
I964
aI62
aa(lp3320
I739
aI314
aa(lp3321
I443
aI105
aa(lp3322
I861
aI557
aa(lp3323
I222
aI496
aa(lp3324
I705
aI96
aa(lp3325
I168
aI385
aa(lp3326
I48
aI280
aa(lp3327
I286
aI481
aa(lp3328
I554
aI636
aa(lp3329
I122
aI200
aa(lp3330
I684
aI629
aa(lp3331
I912
aI83
aa(lp3332
I71
aI163
aa(lp3333
I469
aI317
aa(lp3334
I866
aI556
aa(lp3335
I21
aI145
aa(lp3336
I160
aI728
aa(lp3337
I410
aI184
aa(lp3338
I629
aI411
aa(lp3339
I855
aI98
aa(lp3340
I81
aI323
aa(lp3341
I868
aI644
aa(lp3342
I184
aI739
aa(lp3343
I805
aI128
aa(lp3344
I445
aI482
aa(lp3345
I23
aI241
aa(lp3346
I434
aI112
aa(lp3347
I244
aI10
aa(lp3348
I32
aI361
aa(lp3349
I618
aI10
aa(lp3350
I292
aI130
aa(lp3351
I883
aI570
aa(lp3352
I485
aI130
aa(lp3353
I840
aI115
aa(lp3354
I831
aI663
aa(lp3355
I448
aI359
aa(lp3356
I775
aI363
aa(lp3357
I906
aI660
aa(lp3358
I822
aI640
aa(lp3359
I419
aI398
aa(lp3360
I68
aI312
aa(lp3361
I38
aI577
aa(lp3362
I497
aI496
aa(lp3363
I809
aI402
aa(lp3364
I32
aI273
aa(lp3365
I730
aI590
aa(lp3366
I900
aI126
aa(lp3367
I186
aI544
aa(lp3368
I639
aI174
aa(lp3369
I737
aI573
aa(lp3370
I695
aI605
aa(lp3371
I146
aI262
aa(lp3372
I390
aI286
aa(lp3373
I271
aI135
aa(lp3374
I914
aI143
aa(lp3375
I94
aI407
aa(lp3376
I646
aI99
aa(lp3377
I261
aI184
aa(lp3378
I833
aI437
aa(lp3379
I117
aI627
aa(lp3380
I207
aI470
aa(lp3381
I586
aI506
aa(lp3382
I396
aI446
aa(lp3383
I971
aI544
aa(lp3384
I927
aI210
aa(lp3385
I793
aI657
aa(lp3386
I902
aI416
aa(lp3387
I669
aI562
aa(lp3388
I480
aI389
aa(lp3389
I181
aI260
aa(lp3390
I698
aI370
aa(lp3391
I609
aI458
aa(lp3392
I85
aI631
aa(lp3393
I640
aI419
aa(lp3394
I796
aI114
aa(lp3395
I327
aI331
aa(lp3396
I8
aI478
aa(lp3397
I187
aI684
aa(lp3398
I918
aI107
aa(lp3399
I849
aI711
aa(lp3400
I944
aI173
aa(lp3401
I323
aI652
aa(lp3402
I177
aI98
aa(lp3403
I887
aI186
aa(lp3404
I878
aI59
aa(lp3405
I98
aI452
aa(lp3406
I315
aI660
aa(lp3407
I777
aI154
aa(lp3408
I103
aI247
aa(lp3409
I395
aI399
aa(lp3410
I876
aI509
aa(lp3411
I635
aI337
aa(lp3412
I526
aI647
aa(lp3413
I584
aI627
aa(lp3414
I86
aI518
aa(lp3415
I872
aI706
aa(lp3416
I709
aI185
aa(lp3417
I592
aI153
aa(lp3418
I408
aI169
aa(lp3419
I561
aI101
aa(lp3420
I494
aI167
aa(lp3421
I107
aI424
aa(lp3422
I971
aI379
aa(lp3423
I130
aI699
aa(lp3424
I463
aI313
aa(lp3425
I962
aI190
aa(lp3426
I671
aI598
aa(lp3427
I30
aI752
aa(lp3428
I474
aI12
aa(lp3429
I773
aI143
aa(lp3430
I166
aI447
aa(lp3431
I109
aI360
aa(lp3432
I767
aI729
aa(lp3433
I452
aI295
aa(lp3434
I14
aI308
aa(lp3435
I180
aI313
aa(lp3436
I42
aI472
aa(lp3437
I87
aI703
aa(lp3438
I129
aI167
aa(lp3439
I962
aI470
aa(lp3440
I708
aI406
aa(lp3441
I830
aI132
aa(lp3442
I9
aI513
aa(lp3443
I441
aI75
aa(lp3444
I274
aI85
aa(lp3445
I226
aI322
aa(lp3446
I35
aI387
aa(lp3447
I764
aI121
aa(lp3448
I638
aI244
aa(lp3449
I833
aI731
aa(lp3450
I534
aI82
aa(lp3451
I671
aI435
aa(lp3452
I536
aI359
aa(lp3453
I578
aI457
aa(lp3454
I531
aI124
aa(lp3455
I908
aI630
aa(lp3456
I853
aI644
aa(lp3457
I904
aI589
aa(lp3458
I670
aI229
aa(lp3459
I719
aI328
aa(lp3460
I339
aI218
aa(lp3461
I561
aI567
aa(lp3462
I665
aI293
aa(lp3463
I189
aI377
aa(lp3464
I270
aI552
aa(lp3465
I167
aI287
aa(lp3466
I489
aI584
aa(lp3467
I824
aI139
aa(lp3468
I733
aI497
aa(lp3469
I896
aI590
aa(lp3470
I809
aI731
aa(lp3471
I898
aI344
aa(lp3472
I5
aI111
aa(lp3473
I756
aI705
aa(lp3474
I644
aI461
aa(lp3475
I681
aI77
aa(lp3476
I239
aI585
aa(lp3477
I42
aI183
aa(lp3478
I469
aI782
aa(lp3479
I629
aI492
aa(lp3480
I455
aI505
aa(lp3481
I555
aI598
aa(lp3482
I265
aI485
aa(lp3483
I324
aI532
aa(lp3484
I282
aI21
aa(lp3485
I443
aI360
aa(lp3486
I15
aI519
aa(lp3487
I722
aI595
aa(lp3488
I287
aI722
aa(lp3489
I299
aI670
aa(lp3490
I785
aI23
aa(lp3491
I280
aI746
aa(lp3492
I670
aI156
aa(lp3493
I731
aI412
aa(lp3494
I689
aI478
aa(lp3495
I609
aI6
aa(lp3496
I305
aI716
aa(lp3497
I952
aI781
aa(lp3498
I531
aI19
aa(lp3499
I99
aI565
aa(lp3500
I781
aI125
aa(lp3501
I105
aI373
aa(lp3502
I95
aI184
aa(lp3503
I144
aI3
aa(lp3504
I882
aI163
aa(lp3505
I199
aI683
aa(lp3506
I625
aI338
aa(lp3507
I592
aI12
aa(lp3508
I207
aI453
aa(lp3509
I159
aI124
aa(lp3510
I867
aI185
aa(lp3511
I462
aI156
aa(lp3512
I165
aI707
aa(lp3513
I956
aI310
aa(lp3514
I207
aI99
aa(lp3515
I197
aI400
aa(lp3516
I736
aI436
aa(lp3517
I803
aI724
aa(lp3518
I32
aI95
aa(lp3519
I974
aI18
aa(lp3520
I652
aI690
aa(lp3521
I452
aI134
aa(lp3522
I803
aI104
aa(lp3523
I814
aI360
aa(lp3524
I628
aI22
aa(lp3525
I876
aI666
aa(lp3526
I622
aI598
aa(lp3527
I254
aI706
aa(lp3528
I854
aI339
aa(lp3529
I701
aI263
aa(lp3530
I708
aI465
aa(lp3531
I644
aI559
aa(lp3532
I41
aI407
aa(lp3533
I47
aI248
aa(lp3534
I569
aI124
aa(lp3535
I234
aI122
aa(lp3536
I316
aI268
aa(lp3537
I960
aI268
aa(lp3538
I25
aI475
aa(lp3539
I668
aI357
aa(lp3540
I585
aI196
aa(lp3541
I183
aI377
aa(lp3542
I227
aI774
aa(lp3543
I138
aI149
aa(lp3544
I639
aI515
aa(lp3545
I671
aI426
aa(lp3546
I761
aI273
aa(lp3547
I611
aI318
aa(lp3548
I53
aI321
aa(lp3549
I621
aI600
aa(lp3550
I376
aI776
aa(lp3551
I276
aI750
aa(lp3552
I299
aI127
aa(lp3553
I714
aI208
aa(lp3554
I183
aI418
aa(lp3555
I311
aI133
aa(lp3556
I484
aI584
aa(lp3557
I900
aI663
aa(lp3558
I215
aI83
aa(lp3559
I314
aI123
aa(lp3560
I679
aI142
aa(lp3561
I934
aI17
aa(lp3562
I536
aI620
aa(lp3563
I759
aI550
aa(lp3564
I470
aI300
aa(lp3565
I23
aI596
aa(lp3566
I858
aI447
aa(lp3567
I20
aI722
aa(lp3568
I41
aI198
aa(lp3569
I101
aI457
aa(lp3570
I807
aI342
aa(lp3571
I141
aI172
aa(lp3572
I120
aI703
aa(lp3573
I645
aI79
aa(lp3574
I61
aI555
aa(lp3575
I540
aI671
aa(lp3576
I425
aI303
aa(lp3577
I267
aI90
aa(lp3578
I625
aI80
aa(lp3579
I327
aI196
aa(lp3580
I952
aI129
aa(lp3581
I448
aI320
aa(lp3582
I248
aI83
aa(lp3583
I602
aI637
aa(lp3584
I934
aI224
aa(lp3585
I456
aI164
aa(lp3586
I125
aI595
aa(lp3587
I217
aI715
aa(lp3588
I865
aI32
aa(lp3589
I153
aI405
aa(lp3590
I520
aI604
aa(lp3591
I841
aI473
aa(lp3592
I56
aI722
aa(lp3593
I19
aI211
aa(lp3594
I909
aI544
aa(lp3595
I511
aI206
aa(lp3596
I872
aI217
aa(lp3597
I459
aI85
aa(lp3598
I20
aI442
aa(lp3599
I506
aI654
aa(lp3600
I169
aI256
aa(lp3601
I458
aI183
aa(lp3602
I191
aI404
aa(lp3603
I465
aI589
aa(lp3604
I271
aI768
aa(lp3605
I620
aI284
aa(lp3606
I50
aI349
aa(lp3607
I872
aI776
aa(lp3608
I851
aI636
aa(lp3609
I811
aI373
aa(lp3610
I89
aI501
aa(lp3611
I396
aI504
aa(lp3612
I350
aI82
aa(lp3613
I23
aI757
aa(lp3614
I154
aI395
aa(lp3615
I672
aI461
aa(lp3616
I20
aI755
aa(lp3617
I526
aI348
aa(lp3618
I914
aI655
aa(lp3619
I627
aI12
aa(lp3620
I579
aI184
aa(lp3621
I289
aI756
aa(lp3622
I211
aI326
aa(lp3623
I503
aI148
aa(lp3624
I967
aI386
aa(lp3625
I106
aI587
aa(lp3626
I696
aI340
aa(lp3627
I841
aI431
aa(lp3628
I334
aI167
aa(lp3629
I430
aI648
aa(lp3630
I366
aI16
aa(lp3631
I924
aI204
aa(lp3632
I817
aI326
aa(lp3633
I90
aI461
aa(lp3634
I246
aI245
aa(lp3635
I6
aI422
aa(lp3636
I804
aI656
aa(lp3637
I687
aI17
aa(lp3638
I697
aI580
aa(lp3639
I875
aI365
aa(lp3640
I51
aI178
aa(lp3641
I203
aI182
aa(lp3642
I808
aI165
aa(lp3643
I740
aI424
aa(lp3644
I793
aI331
aa(lp3645
I162
aI748
aa(lp3646
I241
aI305
aa(lp3647
I17
aI228
aa(lp3648
I755
aI24
aa(lp3649
I102
aI660
aa(lp3650
I900
aI598
aa(lp3651
I891
aI371
aa(lp3652
I580
aI670
aa(lp3653
I969
aI160
aa(lp3654
I97
aI735
aa(lp3655
I638
aI19
aa(lp3656
I961
aI318
aa(lp3657
I118
aI500
aa(lp3658
I268
aI28
aa(lp3659
I821
aI177
aa(lp3660
I858
aI719
aa(lp3661
I161
aI111
aa(lp3662
I576
aI98
aa(lp3663
I843
aI187
aa(lp3664
I482
aI550
aa(lp3665
I468
aI90
aa(lp3666
I414
aI465
aa(lp3667
I219
aI168
aa(lp3668
I51
aI517
aa(lp3669
I329
aI348
aa(lp3670
I322
aI174
aa(lp3671
I238
aI408
aa(lp3672
I836
aI314
aa(lp3673
I891
aI529
aa(lp3674
I857
aI145
aa(lp3675
I123
aI91
aa(lp3676
I245
aI549
aa(lp3677
I545
aI236
aa(lp3678
I561
aI296
aa(lp3679
I679
aI384
aa(lp3680
I86
aI417
aa(lp3681
I602
aI25
aa(lp3682
I112
aI245
aa(lp3683
I314
aI110
aa(lp3684
I222
aI182
aa(lp3685
I112
aI21
aa(lp3686
I688
aI716
aa(lp3687
I934
aI223
aa(lp3688
I658
aI437
aa(lp3689
I324
aI294
aa(lp3690
I917
aI184
aa(lp3691
I592
aI709
aa(lp3692
I190
aI131
aa(lp3693
I81
aI461
aa(lp3694
I543
aI616
aa(lp3695
I721
aI669
aa(lp3696
I236
aI292
aa(lp3697
I240
aI176
aa(lp3698
I659
aI328
aa(lp3699
I330
aI561
aa(lp3700
I562
aI180
aa(lp3701
I785
aI63
aa(lp3702
I470
aI480
aa(lp3703
I871
aI679
aa(lp3704
I203
aI633
aa(lp3705
I5
aI83
aa(lp3706
I41
aI689
aa(lp3707
I50
aI381
aa(lp3708
I404
aI132
aa(lp3709
I417
aI541
aa(lp3710
I895
aI725
aa(lp3711
I143
aI400
aa(lp3712
I656
aI408
aa(lp3713
I231
aI764
aa(lp3714
I509
aI238
aa(lp3715
I535
aI549
aa(lp3716
I232
aI10
aa(lp3717
I960
aI148
aa(lp3718
I659
aI123
aa(lp3719
I693
aI563
aa(lp3720
I602
aI244
aa(lp3721
I292
aI444
aa(lp3722
I12
aI768
aa(lp3723
I589
aI674
aa(lp3724
I732
aI344
aa(lp3725
I950
aI206
aa(lp3726
I544
aI625
aa(lp3727
I959
aI679
aa(lp3728
I305
aI185
aa(lp3729
I154
aI461
aa(lp3730
I13
aI229
aa(lp3731
I976
aI389
aa(lp3732
I853
aI705
aa(lp3733
I906
aI345
aa(lp3734
I294
aI3
aa(lp3735
I133
aI704
aa(lp3736
I147
aI706
aa(lp3737
I660
aI458
aa(lp3738
I693
aI2
aa(lp3739
I862
aI64
aa(lp3740
I58
aI578
aa(lp3741
I578
aI105
aa(lp3742
I507
aI162
aa(lp3743
I197
aI211
aa(lp3744
I800
aI689
aa(lp3745
I123
aI606
aa(lp3746
I595
aI681
aa(lp3747
I906
aI573
aa(lp3748
I972
aI762
aa(lp3749
I406
aI556
aa(lp3750
I960
aI621
aa(lp3751
I898
aI363
aa(lp3752
I624
aI569
aa(lp3753
I648
aI355
aa(lp3754
I379
aI602
aa(lp3755
I529
aI645
aa(lp3756
I615
aI564
aa(lp3757
I704
aI773
aa(lp3758
I595
aI317
aa(lp3759
I3
aI712
aa(lp3760
I204
aI703
aa(lp3761
I908
aI28
aa(lp3762
I199
aI619
aa(lp3763
I70
aI346
aa(lp3764
I454
aI229
aa(lp3765
I438
aI497
aa(lp3766
I839
aI163
aa(lp3767
I406
aI312
aa(lp3768
I256
aI422
aa(lp3769
I597
aI148
aa(lp3770
I78
aI133
aa(lp3771
I869
aI290
aa(lp3772
I910
aI220
aa(lp3773
I755
aI724
aa(lp3774
I843
aI467
aa(lp3775
I831
aI344
aa(lp3776
I869
aI395
aa(lp3777
I181
aI451
aa(lp3778
I248
aI275
aa(lp3779
I187
aI394
aa(lp3780
I112
aI410
aa(lp3781
I720
aI472
aa(lp3782
I564
aI201
aa(lp3783
I792
aI6
aa(lp3784
I651
aI131
aa(lp3785
I926
aI180
aa(lp3786
I326
aI718
aa(lp3787
I801
aI370
aa(lp3788
I265
aI696
aa(lp3789
I815
aI514
aa(lp3790
I52
aI500
aa(lp3791
I283
aI265
aa(lp3792
I967
aI422
aa(lp3793
I544
aI140
aa(lp3794
I816
aI410
aa(lp3795
I682
aI283
aa(lp3796
I747
aI273
aa(lp3797
I493
aI629
aa(lp3798
I72
aI704
aa(lp3799
I905
aI599
aa(lp3800
I448
aI75
aa(lp3801
I170
aI167
aa(lp3802
I210
aI250
aa(lp3803
I534
aI650
aa(lp3804
I31
aI347
aa(lp3805
I296
aI96
aa(lp3806
I734
aI18
aa(lp3807
I214
aI363
aa(lp3808
I233
aI359
aa(lp3809
I466
aI579
aa(lp3810
I247
aI311
aa(lp3811
I244
aI371
aa(lp3812
I291
aI768
aa(lp3813
I292
aI705
aa(lp3814
I841
aI645
aa(lp3815
I960
aI457
aa(lp3816
I492
aI352
aa(lp3817
I839
aI660
aa(lp3818
I26
aI629
aa(lp3819
I236
aI136
aa(lp3820
I709
aI122
aa(lp3821
I798
aI281
aa(lp3822
I378
aI334
aa(lp3823
I70
aI683
aa(lp3824
I241
aI256
aa(lp3825
I633
aI497
aa(lp3826
I195
aI148
aa(lp3827
I232
aI100
aa(lp3828
I188
aI350
aa(lp3829
I223
aI157
aa(lp3830
I85
aI145
aa(lp3831
I312
aI707
aa(lp3832
I342
aI101
aa(lp3833
I641
aI249
aa(lp3834
I132
aI593
aa(lp3835
I715
aI572
aa(lp3836
I886
aI631
aa(lp3837
I315
aI555
aa(lp3838
I741
aI586
aa(lp3839
I192
aI234
aa(lp3840
I962
aI357
aa(lp3841
I43
aI99
aa(lp3842
I575
aI246
aa(lp3843
I601
aI628
aa(lp3844
I23
aI354
aa(lp3845
I787
aI73
aa(lp3846
I2
aI561
aa(lp3847
I504
aI135
aa(lp3848
I568
aI271
aa(lp3849
I313
aI398
aa(lp3850
I156
aI724
aa(lp3851
I194
aI482
aa(lp3852
I96
aI692
aa(lp3853
I240
aI393
aa(lp3854
I148
aI725
aa(lp3855
I953
aI159
aa(lp3856
I96
aI184
aa(lp3857
I165
aI537
aa(lp3858
I210
aI353
aa(lp3859
I62
aI23
aa(lp3860
I833
aI728
aa(lp3861
I133
aI479
aa(lp3862
I302
aI123
aa(lp3863
I637
aI320
aa(lp3864
I236
aI675
aa(lp3865
I346
aI121
aa(lp3866
I309
aI526
aa(lp3867
I842
aI389
aa(lp3868
I794
aI153
aa(lp3869
I382
aI648
aa(lp3870
I272
aI166
aa(lp3871
I322
aI366
aa(lp3872
I58
aI673
aa(lp3873
I477
aI568
aa(lp3874
I108
aI469
aa(lp3875
I879
aI14
aa(lp3876
I95
aI127
aa(lp3877
I45
aI103
aa(lp3878
I199
aI161
aa(lp3879
I855
aI453
aa(lp3880
I962
aI416
aa(lp3881
I517
aI596
aa(lp3882
I631
aI371
aa(lp3883
I778
aI144
aa(lp3884
I333
aI369
aa(lp3885
I237
aI137
aa(lp3886
I967
aI305
aa(lp3887
I252
aI188
aa(lp3888
I363
aI29
aa(lp3889
I213
aI244
aa(lp3890
I568
aI772
aa(lp3891
I852
aI81
aa(lp3892
I848
aI633
aa(lp3893
I881
aI547
aa(lp3894
I906
aI105
aa(lp3895
I751
aI581
aa(lp3896
I486
aI201
aa(lp3897
I669
aI272
aa(lp3898
I141
aI305
aa(lp3899
I733
aI437
aa(lp3900
I176
aI576
aa(lp3901
I205
aI652
aa(lp3902
I51
aI579
aa(lp3903
I407
aI335
aa(lp3904
I833
aI613
aa(lp3905
I978
aI262
aa(lp3906
I325
aI141
aa(lp3907
I808
aI25
aa(lp3908
I14
aI62
aa(lp3909
I235
aI569
aa(lp3910
I964
aI536
aa(lp3911
I747
aI687
aa(lp3912
I73
aI282
aa(lp3913
I49
aI433
aa(lp3914
I687
aI776
aa(lp3915
I229
aI164
aa(lp3916
I619
aI697
aa(lp3917
I844
aI666
aa(lp3918
I530
aI186
aa(lp3919
I83
aI277
aa(lp3920
I537
aI452
aa(lp3921
I251
aI208
aa(lp3922
I787
aI607
aa(lp3923
I320
aI332
aa(lp3924
I753
aI723
aa(lp3925
I304
aI765
aa(lp3926
I729
aI685
aa(lp3927
I622
aI299
aa(lp3928
I430
aI229
aa(lp3929
I172
aI776
aa(lp3930
I304
aI300
aa(lp3931
I170
aI285
aa(lp3932
I952
aI113
aa(lp3933
I37
aI356
aa(lp3934
I605
aI652
aa(lp3935
I537
aI443
aa(lp3936
I281
aI153
aa(lp3937
I649
aI606
aa(lp3938
I151
aI329
aa(lp3939
I627
aI691
aa(lp3940
I291
aI394
aa(lp3941
I808
aI607
aa(lp3942
I88
aI258
aa(lp3943
I159
aI705
aa(lp3944
I907
aI30
aa(lp3945
I674
aI187
aa(lp3946
I538
aI686
aa(lp3947
I477
aI11
aa(lp3948
I956
aI235
aa(lp3949
I968
aI98
aa(lp3950
I214
aI607
aa(lp3951
I376
aI119
aa(lp3952
I451
aI116
aa(lp3953
I704
aI433
aa(lp3954
I171
aI607
aa(lp3955
I854
aI551
aa(lp3956
I247
aI634
aa(lp3957
I245
aI21
aa(lp3958
I440
aI480
aa(lp3959
I863
aI627
aa(lp3960
I694
aI550
aa(lp3961
I447
aI290
aa(lp3962
I185
aI728
aa(lp3963
I679
aI94
aa(lp3964
I207
aI291
aa(lp3965
I293
aI583
aa(lp3966
I265
aI718
aa(lp3967
I892
aI781
aa(lp3968
I182
aI301
aa(lp3969
I296
aI332
aa(lp3970
I253
aI737
aa(lp3971
I797
aI76
aa(lp3972
I573
aI705
aa(lp3973
I116
aI371
aa(lp3974
I361
aI221
aa(lp3975
I442
aI330
aa(lp3976
I663
aI775
aa(lp3977
I625
aI315
aa(lp3978
I290
aI550
aa(lp3979
I642
aI636
aa(lp3980
I54
aI518
aa(lp3981
I186
aI16
aa(lp3982
I575
aI13
aa(lp3983
I195
aI395
aa(lp3984
I555
aI198
aa(lp3985
I516
aI659
aa(lp3986
I597
aI639
aa(lp3987
I26
aI599
aa(lp3988
I229
aI621
aa(lp3989
I900
aI583
aa(lp3990
I349
aI150
aa(lp3991
I698
aI214
aa(lp3992
I812
aI289
aa(lp3993
I286
aI299
aa(lp3994
I193
aI579
aa(lp3995
I129
aI159
aa(lp3996
I872
aI293
aa(lp3997
I74
aI729
aa(lp3998
I17
aI611
aa(lp3999
I286
aI728
aa(lp4000
I965
aI91
aa(lp4001
I605
aI12
aa(lp4002
I23
aI395
aa(lp4003
I885
aI518
aa(lp4004
I79
aI598
aa(lp4005
I48
aI404
aa(lp4006
I464
aI155
aa(lp4007
I969
aI461
aa(lp4008
I208
aI594
aa(lp4009
I961
aI376
aa(lp4010
I187
aI538
aa(lp4011
I891
aI352
aa(lp4012
I250
aI439
aa(lp4013
I865
aI170
aa(lp4014
I830
aI79
aa(lp4015
I958
aI540
aa(lp4016
I844
aI502
aa(lp4017
I447
aI387
aa(lp4018
I962
aI562
aa(lp4019
I327
aI300
aa(lp4020
I90
aI624
aa(lp4021
I414
aI502
aa(lp4022
I709
aI196
aa(lp4023
I308
aI552
aa(lp4024
I143
aI570
aa(lp4025
I874
aI637
aa(lp4026
I963
aI719
aa(lp4027
I139
aI489
aa(lp4028
I713
aI255
aa(lp4029
I178
aI115
aa(lp4030
I818
aI382
aa(lp4031
I297
aI167
aa(lp4032
I178
aI516
aa(lp4033
I127
aI733
aa(lp4034
I252
aI105
aa(lp4035
I417
aI616
aa(lp4036
I159
aI542
aa(lp4037
I306
aI344
aa(lp4038
I78
aI187
aa(lp4039
I768
aI191
aa(lp4040
I181
aI470
aa(lp4041
I694
aI470
aa(lp4042
I720
aI551
aa(lp4043
I790
aI455
aa(lp4044
I707
aI147
aa(lp4045
I208
aI554
aa(lp4046
I641
aI377
aa(lp4047
I95
aI588
aa(lp4048
I87
aI75
aa(lp4049
I959
aI600
aa(lp4050
I684
aI565
aa(lp4051
I541
aI124
aa(lp4052
I289
aI202
aa(lp4053
I530
aI98
aa(lp4054
I968
aI167
aa(lp4055
I247
aI120
aa(lp4056
I38
aI231
aa(lp4057
I864
aI578
aa(lp4058
I852
aI358
aa(lp4059
I886
aI327
aa(lp4060
I28
aI441
aa(lp4061
I630
aI698
aa(lp4062
I54
aI728
aa(lp4063
I310
aI417
aa(lp4064
I157
aI296
aa(lp4065
I159
aI451
aa(lp4066
I793
aI31
aa(lp4067
I675
aI607
aa(lp4068
I681
aI94
aa(lp4069
I797
aI71
aa(lp4070
I896
aI332
aa(lp4071
I452
aI90
aa(lp4072
I8
aI425
aa(lp4073
I779
aI668
aa(lp4074
I805
aI666
aa(lp4075
I215
aI491
aa(lp4076
I30
aI612
aa(lp4077
I592
aI627
aa(lp4078
I122
aI687
aa(lp4079
I80
aI18
aa(lp4080
I168
aI522
aa(lp4081
I874
aI729
aa(lp4082
I717
aI17
aa(lp4083
I118
aI297
aa(lp4084
I843
aI148
aa(lp4085
I107
aI400
aa(lp4086
I139
aI152
aa(lp4087
I324
aI140
aa(lp4088
I127
aI385
aa(lp4089
I920
aI24
aa(lp4090
I324
aI402
aa(lp4091
I672
aI347
aa(lp4092
I86
aI459
aa(lp4093
I803
aI187
aa(lp4094
I888
aI389
aa(lp4095
I649
aI79
aa(lp4096
I416
aI401
aa(lp4097
I853
aI544
aa(lp4098
I163
aI518
aa(lp4099
I103
aI2
aa(lp4100
I68
aI348
aa(lp4101
I575
aI221
aa(lp4102
I720
aI507
aa(lp4103
I204
aI102
aa(lp4104
I380
aI300
aa(lp4105
I605
aI313
aa(lp4106
I965
aI711
aa(lp4107
I223
aI566
aa(lp4108
I135
aI79
aa(lp4109
I796
aI440
aa(lp4110
I39
aI351
aa(lp4111
I323
aI348
aa(lp4112
I107
aI322
aa(lp4113
I828
aI571
aa(lp4114
I202
aI296
aa(lp4115
I609
aI27
aa(lp4116
I452
aI352
aa(lp4117
I248
aI668
aa(lp4118
I551
aI311
aa(lp4119
I906
aI61
aa(lp4120
I822
aI566
aa(lp4121
I326
aI539
aa(lp4122
I310
aI645
aa(lp4123
I257
aI140
aa(lp4124
I213
aI455
aa(lp4125
I454
aI379
aa(lp4126
I872
aI306
aa(lp4127
I697
aI342
aa(lp4128
I474
aI479
aa(lp4129
I648
aI615
aa(lp4130
I273
aI115
aa(lp4131
I76
aI10
aa(lp4132
I121
aI657
aa(lp4133
I231
aI677
aa(lp4134
I268
aI577
aa(lp4135
I101
aI184
aa(lp4136
I908
aI532
aa(lp4137
I109
aI248
aa(lp4138
I919
aI15
aa(lp4139
I290
aI167
aa(lp4140
I713
aI675
aa(lp4141
I6
aI308
aa(lp4142
I473
aI627
aa(lp4143
I328
aI592
aa(lp4144
I172
aI579
aa(lp4145
I907
aI557
aa(lp4146
I959
aI730
aa(lp4147
I175
aI334
aa(lp4148
I124
aI644
aa(lp4149
I213
aI194
aa(lp4150
I250
aI443
aa(lp4151
I694
aI607
aa(lp4152
I638
aI366
aa(lp4153
I146
aI162
aa(lp4154
I325
aI419
aa(lp4155
I831
aI143
aa(lp4156
I223
aI545
aa(lp4157
I583
aI187
aa(lp4158
I645
aI8
aa(lp4159
I626
aI474
aa(lp4160
I803
aI434
aa(lp4161
I731
aI306
aa(lp4162
I289
aI486
aa(lp4163
I563
aI76
aa(lp4164
I270
aI187
aa(lp4165
I771
aI88
aa(lp4166
I47
aI352
aa(lp4167
I768
aI100
aa(lp4168
I89
aI399
aa(lp4169
I163
aI228
aa(lp4170
I436
aI579
aa(lp4171
I712
aI233
aa(lp4172
I951
aI205
aa(lp4173
I712
aI690
aa(lp4174
I278
aI670
aa(lp4175
I263
aI411
aa(lp4176
I19
aI487
aa(lp4177
I776
aI62
aa(lp4178
I939
aI174
aa(lp4179
I175
aI149
aa(lp4180
I398
aI398
aa(lp4181
I276
aI14
aa(lp4182
I471
aI179
aa(lp4183
I867
aI316
aa(lp4184
I973
aI569
aa(lp4185
I95
aI746
aa(lp4186
I149
aI653
aa(lp4187
I61
aI752
aa(lp4188
I516
aI604
aa(lp4189
I872
aI517
aa(lp4190
I17
aI342
aa(lp4191
I522
aI372
aa(lp4192
I257
aI540
aa(lp4193
I807
aI605
aa(lp4194
I333
aI197
aa(lp4195
I56
aI272
aa(lp4196
I244
aI692
aa(lp4197
I14
aI740
aa(lp4198
I685
aI659
aa(lp4199
I829
aI564
aa(lp4200
I411
aI27
aa(lp4201
I882
aI483
aa(lp4202
I235
aI282
aa(lp4203
I311
aI306
aa(lp4204
I266
aI602
aa(lp4205
I494
aI614
aa(lp4206
I891
aI495
aa(lp4207
I306
aI337
aa(lp4208
I560
aI337
aa(lp4209
I33
aI555
aa(lp4210
I509
aI332
aa(lp4211
I28
aI532
aa(lp4212
I332
aI772
aa(lp4213
I847
aI552
aa(lp4214
I500
aI328
aa(lp4215
I257
aI783
aa(lp4216
I862
aI382
aa(lp4217
I915
aI207
aa(lp4218
I575
aI479
aa(lp4219
I701
aI732
aa(lp4220
I657
aI353
aa(lp4221
I892
aI576
aa(lp4222
I187
aI236
aa(lp4223
I698
aI17
aa(lp4224
I618
aI213
aa(lp4225
I394
aI308
aa(lp4226
I505
aI602
aa(lp4227
I590
aI315
aa(lp4228
I398
aI327
aa(lp4229
I123
aI647
aa(lp4230
I135
aI571
aa(lp4231
I314
aI639
aa(lp4232
I396
aI315
aa(lp4233
I644
aI681
aa(lp4234
I614
aI421
aa(lp4235
I245
aI606
aa(lp4236
I606
aI429
aa(lp4237
I89
aI734
aa(lp4238
I12
aI597
aa(lp4239
I895
aI3
aa(lp4240
I176
aI514
aa(lp4241
I863
aI365
aa(lp4242
I613
aI224
aa(lp4243
I674
aI714
aa(lp4244
I244
aI739
aa(lp4245
I211
aI190
aa(lp4246
I393
aI783
aa(lp4247
I344
aI112
aa(lp4248
I660
aI266
aa(lp4249
I682
aI498
aa(lp4250
I491
aI459
aa(lp4251
I947
aI218
aa(lp4252
I31
aI165
aa(lp4253
I871
aI424
aa(lp4254
I654
aI207
aa(lp4255
I344
aI126
aa(lp4256
I879
aI303
aa(lp4257
I12
aI139
aa(lp4258
I412
aI143
aa(lp4259
I126
aI622
aa(lp4260
I444
aI139
aa(lp4261
I556
aI629
aa(lp4262
I428
aI160
aa(lp4263
I60
aI328
aa(lp4264
I659
aI290
aa(lp4265
I807
aI391
aa(lp4266
I77
aI237
aa(lp4267
I937
aI163
aa(lp4268
I798
aI50
aa(lp4269
I167
aI417
aa(lp4270
I581
aI609
aa(lp4271
I652
aI179
aa(lp4272
I300
aI260
aa(lp4273
I541
aI24
aa(lp4274
I312
aI570
aa(lp4275
I816
aI205
aa(lp4276
I324
aI602
aa(lp4277
I964
aI304
aa(lp4278
I358
aI154
aa(lp4279
I511
aI94
aa(lp4280
I209
aI182
aa(lp4281
I641
aI687
aa(lp4282
I895
aI66
aa(lp4283
I318
aI781
aa(lp4284
I557
aI614
aa(lp4285
I909
aI732
aa(lp4286
I84
aI455
aa(lp4287
I263
aI578
aa(lp4288
I459
aI15
aa(lp4289
I848
aI614
aa(lp4290
I484
aI610
aa(lp4291
I95
aI735
aa(lp4292
I843
aI287
aa(lp4293
I593
aI344
aa(lp4294
I847
aI89
aa(lp4295
I214
aI520
aa(lp4296
I232
aI138
aa(lp4297
I701
aI159
aa(lp4298
I20
aI154
aa(lp4299
I813
aI83
aa(lp4300
I778
aI118
aa(lp4301
I324
aI330
aa(lp4302
I217
aI541
aa(lp4303
I34
aI417
aa(lp4304
I50
aI303
aa(lp4305
I115
aI295
aa(lp4306
I959
aI679
aa(lp4307
I247
aI633
aa(lp4308
I281
aI473
aa(lp4309
I168
aI481
aa(lp4310
I680
aI506
aa(lp4311
I970
aI667
aa(lp4312
I783
aI53
aa(lp4313
I786
aI188
aa(lp4314
I226
aI738
aa(lp4315
I550
aI694
aa(lp4316
I83
aI774
aa(lp4317
I306
aI237
aa(lp4318
I18
aI757
aa(lp4319
I901
aI675
aa(lp4320
I73
aI675
aa(lp4321
I30
aI576
aa(lp4322
I161
aI357
aa(lp4323
I649
aI370
aa(lp4324
I524
aI505
aa(lp4325
I536
aI225
aa(lp4326
I187
aI507
aa(lp4327
I757
aI701
aa(lp4328
I84
aI501
aa(lp4329
I203
aI115
aa(lp4330
I597
aI282
aa(lp4331
I242
aI454
aa(lp4332
I818
aI196
aa(lp4333
I131
aI399
aa(lp4334
I102
aI579
aa(lp4335
I754
aI21
aa(lp4336
I311
aI115
aa(lp4337
I543
aI115
aa(lp4338
I53
aI316
aa(lp4339
I429
aI769
aa(lp4340
I614
aI305
aa(lp4341
I244
aI360
aa(lp4342
I146
aI523
aa(lp4343
I334
aI267
aa(lp4344
I960
aI101
aa(lp4345
I416
aI313
aa(lp4346
I176
aI230
aa(lp4347
I466
aI76
aa(lp4348
I499
aI81
aa(lp4349
I282
aI291
aa(lp4350
I604
aI613
aa(lp4351
I825
aI482
aa(lp4352
I118
aI379
aa(lp4353
I648
aI462
aa(lp4354
I424
aI571
aa(lp4355
I264
aI763
aa(lp4356
I325
aI148
aa(lp4357
I462
aI587
aa(lp4358
I653
aI129
aa(lp4359
I505
aI477
aa(lp4360
I857
aI152
aa(lp4361
I202
aI482
aa(lp4362
I503
aI459
aa(lp4363
I861
aI339
aa(lp4364
I550
aI625
aa(lp4365
I245
aI164
aa(lp4366
I378
aI96
aa(lp4367
I947
aI119
aa(lp4368
I394
aI646
aa(lp4369
I178
aI712
aa(lp4370
I310
aI502
aa(lp4371
I40
aI106
aa(lp4372
I436
aI3
aa(lp4373
I627
aI633
aa(lp4374
I543
aI89
aa(lp4375
I118
aI375
aa(lp4376
I823
aI772
aa(lp4377
I71
aI693
aa(lp4378
I731
aI675
aa(lp4379
I685
aI774
aa(lp4380
I72
aI256
aa(lp4381
I747
aI479
aa(lp4382
I171
aI538
aa(lp4383
I962
aI623
aa(lp4384
I98
aI481
aa(lp4385
I99
aI135
aa(lp4386
I797
aI726
aa(lp4387
I491
aI201
aa(lp4388
I596
aI339
aa(lp4389
I804
aI489
aa(lp4390
I68
aI457
aa(lp4391
I178
aI475
aa(lp4392
I397
aI221
aa(lp4393
I619
aI109
aa(lp4394
I49
aI122
aa(lp4395
I416
aI538
aa(lp4396
I825
aI159
aa(lp4397
I454
aI399
aa(lp4398
I6
aI56
aa(lp4399
I51
aI719
aa(lp4400
I908
aI331
aa(lp4401
I519
aI133
aa(lp4402
I676
aI250
aa(lp4403
I571
aI139
aa(lp4404
I477
aI157
aa(lp4405
I192
aI242
aa(lp4406
I285
aI27
aa(lp4407
I808
aI114
aa(lp4408
I544
aI514
aa(lp4409
I607
aI612
aa(lp4410
I564
aI684
aa(lp4411
I263
aI683
aa(lp4412
I713
aI194
aa(lp4413
I288
aI93
aa(lp4414
I47
aI195
aa(lp4415
I64
aI503
aa(lp4416
I104
aI130
aa(lp4417
I785
aI326
aa(lp4418
I504
aI311
aa(lp4419
I152
aI669
aa(lp4420
I838
aI774
aa(lp4421
I785
aI593
aa(lp4422
I243
aI773
aa(lp4423
I311
aI600
aa(lp4424
I57
aI552
aa(lp4425
I405
aI415
aa(lp4426
I513
aI234
aa(lp4427
I340
aI219
aa(lp4428
I20
aI276
aa(lp4429
I754
aI673
aa(lp4430
I334
aI321
aa(lp4431
I498
aI315
aa(lp4432
I924
aI82
aa(lp4433
I145
aI213
aa(lp4434
I807
aI727
aa(lp4435
I334
aI728
aa(lp4436
I637
aI590
aa(lp4437
I49
aI351
aa(lp4438
I73
aI700
aa(lp4439
I334
aI112
aa(lp4440
I403
aI623
aa(lp4441
I642
aI384
aa(lp4442
I292
aI245
aa(lp4443
I528
aI575
aa(lp4444
I551
aI694
aa(lp4445
I120
aI317
aa(lp4446
I522
aI511
aa(lp4447
I934
aI125
aa(lp4448
I879
aI305
aa(lp4449
I476
aI769
aa(lp4450
I835
aI430
aa(lp4451
I517
aI514
aa(lp4452
I806
aI60
aa(lp4453
I580
aI777
aa(lp4454
I815
aI667
aa(lp4455
I20
aI678
aa(lp4456
I583
aI621
aa(lp4457
I860
aI324
aa(lp4458
I735
aI334
aa(lp4459
I446
aI182
aa(lp4460
I236
aI391
aa(lp4461
I285
aI720
aa(lp4462
I209
aI645
aa(lp4463
I11
aI311
aa(lp4464
I211
aI77
aa(lp4465
I956
aI353
aa(lp4466
I18
aI631
aa(lp4467
I859
aI506
aa(lp4468
I435
aI322
aa(lp4469
I649
aI778
aa(lp4470
I384
aI337
aa(lp4471
I272
aI99
aa(lp4472
I945
aI171
aa(lp4473
I888
aI89
aa(lp4474
I833
aI769
aa(lp4475
I810
aI624
aa(lp4476
I685
aI91
aa(lp4477
I529
aI335
aa(lp4478
I519
aI231
aa(lp4479
I857
aI488
aa(lp4480
I102
aI755
aa(lp4481
I675
aI160
aa(lp4482
I151
aI149
aa(lp4483
I929
aI125
aa(lp4484
I802
aI395
aa(lp4485
I746
aI414
aa(lp4486
I215
aI96
aa(lp4487
I117
aI296
aa(lp4488
I310
aI549
aa(lp4489
I12
aI253
aa(lp4490
I98
aI652
aa(lp4491
I848
aI473
aa(lp4492
I954
aI265
aa(lp4493
I151
aI770
aa(lp4494
I709
aI361
aa(lp4495
I630
aI356
aa(lp4496
I955
aI624
aa(lp4497
I19
aI225
aa(lp4498
I381
aI128
aa(lp4499
I343
aI782
aa(lp4500
I693
aI653
aa(lp4501
I913
aI225
aa(lp4502
I523
aI665
aa(lp4503
I830
aI683
aa(lp4504
I971
aI419
aa(lp4505
I131
aI729
aa(lp4506
I394
aI120
aa(lp4507
I274
aI573
aa(lp4508
I212
aI245
aa(lp4509
I756
aI688
aa(lp4510
I541
aI611
aa(lp4511
I673
aI480
aa(lp4512
I780
aI564
aa(lp4513
I743
aI675
aa(lp4514
I46
aI571
aa(lp4515
I406
aI612
aa(lp4516
I199
aI670
aa(lp4517
I91
aI348
aa(lp4518
I278
aI25
aa(lp4519
I973
aI448
aa(lp4520
I276
aI450
aa(lp4521
I902
aI578
aa(lp4522
I190
aI477
aa(lp4523
I854
aI42
aa(lp4524
I560
aI119
aa(lp4525
I884
aI620
aa(lp4526
I530
aI329
aa(lp4527
I102
aI777
aa(lp4528
I840
aI715
aa(lp4529
I555
aI468
aa(lp4530
I301
aI644
aa(lp4531
I955
aI631
aa(lp4532
I547
aI557
aa(lp4533
I547
aI83
aa(lp4534
I581
aI23
aa(lp4535
I853
aI646
aa(lp4536
I358
aI104
aa(lp4537
I157
aI290
aa(lp4538
I800
aI180
aa(lp4539
I35
aI747
aa(lp4540
I11
aI345
aa(lp4541
I702
aI28
aa(lp4542
I924
aI45
aa(lp4543
I334
aI698
aa(lp4544
I860
aI5
aa(lp4545
I858
aI334
aa(lp4546
I608
aI421
aa(lp4547
I21
aI153
aa(lp4548
I348
aI10
aa(lp4549
I550
aI570
aa(lp4550
I17
aI235
aa(lp4551
I298
aI280
aa(lp4552
I193
aI247
aa(lp4553
I516
aI123
aa(lp4554
I209
aI448
aa(lp4555
I519
aI128
aa(lp4556
I52
aI448
aa(lp4557
I503
aI328
aa(lp4558
I840
aI473
aa(lp4559
I218
aI499
aa(lp4560
I524
aI181
aa(lp4561
I465
aI177
aa(lp4562
I131
aI304
aa(lp4563
I756
aI576
aa(lp4564
I135
aI524
aa(lp4565
I200
aI197
aa(lp4566
I252
aI360
aa(lp4567
I549
aI29
aa(lp4568
I584
aI175
aa(lp4569
I517
aI518
aa(lp4570
I387
aI536
aa(lp4571
I388
aI562
aa(lp4572
I65
aI176
aa(lp4573
I84
aI488
aa(lp4574
I929
aI77
aa(lp4575
I946
aI125
aa(lp4576
I586
aI486
aa(lp4577
I441
aI99
aa(lp4578
I388
aI460
aa(lp4579
I418
aI634
aa(lp4580
I673
aI727
aa(lp4581
I380
aI547
aa(lp4582
I684
aI343
aa(lp4583
I926
aI79
aa(lp4584
I958
aI159
aa(lp4585
I26
aI532
aa(lp4586
I332
aI777
aa(lp4587
I651
aI684
aa(lp4588
I562
aI564
aa(lp4589
I682
aI770
aa(lp4590
I262
aI322
aa(lp4591
I280
aI286
aa(lp4592
I166
aI519
aa(lp4593
I269
aI199
aa(lp4594
I858
aI664
aa(lp4595
I98
aI201
aa(lp4596
I847
aI218
aa(lp4597
I183
aI667
aa(lp4598
I156
aI455
aa(lp4599
I640
aI469
aa(lp4600
I796
aI394
aa(lp4601
I321
aI671
aa(lp4602
I39
aI95
aa(lp4603
I633
aI586
aa(lp4604
I564
aI122
aa(lp4605
I366
aI216
aa(lp4606
I173
aI712
aa(lp4607
I98
aI355
aa(lp4608
I292
aI424
aa(lp4609
I609
aI229
aa(lp4610
I565
aI779
aa(lp4611
I875
aI588
aa(lp4612
I778
aI649
aa(lp4613
I180
aI767
aa(lp4614
I217
aI705
aa(lp4615
I300
aI471
aa(lp4616
I547
aI123
aa(lp4617
I466
aI312
aa(lp4618
I582
aI651
aa(lp4619
I538
aI309
aa(lp4620
I67
aI604
aa(lp4621
I786
aI226
aa(lp4622
I758
aI328
aa(lp4623
I764
aI585
aa(lp4624
I869
aI454
aa(lp4625
I684
aI227
aa(lp4626
I448
aI403
aa(lp4627
I56
aI339
aa(lp4628
I56
aI316
aa(lp4629
I201
aI647
aa(lp4630
I629
aI172
aa(lp4631
I392
aI204
aa(lp4632
I670
aI431
aa(lp4633
I850
aI201
aa(lp4634
I483
aI582
aa(lp4635
I623
aI11
aa(lp4636
I646
aI713
aa(lp4637
I306
aI686
aa(lp4638
I789
aI678
aa(lp4639
I302
aI257
aa(lp4640
I32
aI681
aa(lp4641
I635
aI418
aa(lp4642
I94
aI313
aa(lp4643
I131
aI717
aa(lp4644
I672
aI570
aa(lp4645
I158
aI705
aa(lp4646
I427
aI229
aa(lp4647
I612
aI103
aa(lp4648
I552
aI293
aa(lp4649
I563
aI456
aa(lp4650
I927
aI191
aa(lp4651
I531
aI350
aa(lp4652
I59
aI465
aa(lp4653
I830
aI316
aa(lp4654
I161
aI391
aa(lp4655
I832
aI575
aa(lp4656
I308
aI661
aa(lp4657
I354
aI216
aa(lp4658
I178
aI280
aa(lp4659
I65
aI748
aa(lp4660
I546
aI332
aa(lp4661
I78
aI425
aa(lp4662
I5
aI453
aa(lp4663
I861
aI405
aa(lp4664
I148
aI440
aa(lp4665
I21
aI428
aa(lp4666
I744
aI427
aa(lp4667
I973
aI782
aa(lp4668
I85
aI299
aa(lp4669
I230
aI394
aa(lp4670
I824
aI347
aa(lp4671
I561
aI553
aa(lp4672
I785
aI100
aa(lp4673
I100
aI778
aa(lp4674
I556
aI460
aa(lp4675
I262
aI368
aa(lp4676
I13
aI524
aa(lp4677
I28
aI198
aa(lp4678
I465
aI176
aa(lp4679
I248
aI558
aa(lp4680
I465
aI224
aa(lp4681
I397
aI775
aa(lp4682
I613
aI467
aa(lp4683
I98
aI391
aa(lp4684
I630
aI282
aa(lp4685
I750
aI19
aa(lp4686
I263
aI705
aa(lp4687
I315
aI404
aa(lp4688
I784
aI470
aa(lp4689
I388
aI544
aa(lp4690
I409
aI108
aa(lp4691
I584
aI141
aa(lp4692
I336
aI534
aa(lp4693
I958
aI456
aa(lp4694
I375
aI211
aa(lp4695
I306
aI671
aa(lp4696
I912
aI6
aa(lp4697
I223
aI406
aa(lp4698
I146
aI379
aa(lp4699
I597
aI190
aa(lp4700
I281
aI280
aa(lp4701
I835
aI385
aa(lp4702
I290
aI589
aa(lp4703
I638
aI361
aa(lp4704
I680
aI382
aa(lp4705
I624
aI425
aa(lp4706
I61
aI277
aa(lp4707
I472
aI231
aa(lp4708
I907
aI27
aa(lp4709
I976
aI665
aa(lp4710
I830
aI275
aa(lp4711
I253
aI404
aa(lp4712
I141
aI314
aa(lp4713
I135
aI194
aa(lp4714
I695
aI277
aa(lp4715
I128
aI667
aa(lp4716
I671
aI718
aa(lp4717
I673
aI164
aa(lp4718
I596
aI149
aa(lp4719
I401
aI180
aa(lp4720
I948
aI9
aa(lp4721
I278
aI508
aa(lp4722
I255
aI268
aa(lp4723
I35
aI299
aa(lp4724
I738
aI271
aa(lp4725
I616
aI164
aa(lp4726
I49
aI218
aa(lp4727
I441
aI402
aa(lp4728
I974
aI299
aa(lp4729
I441
aI180
aa(lp4730
I671
aI625
aa(lp4731
I963
aI199
aa(lp4732
I479
aI162
aa(lp4733
I833
aI777
aa(lp4734
I658
aI152
aa(lp4735
I158
aI214
aa(lp4736
I42
aI520
aa(lp4737
I78
aI20
aa(lp4738
I106
aI514
aa(lp4739
I239
aI308
aa(lp4740
I132
aI280
aa(lp4741
I264
aI312
aa(lp4742
I85
aI617
aa(lp4743
I217
aI535
aa(lp4744
I535
aI776
aa(lp4745
I21
aI703
aa(lp4746
I971
aI678
aa(lp4747
I566
aI285
aa(lp4748
I417
aI23
aa(lp4749
I963
aI332
aa(lp4750
I454
aI378
aa(lp4751
I29
aI532
aa(lp4752
I593
aI87
aa(lp4753
I632
aI494
aa(lp4754
I677
aI210
aa(lp4755
I160
aI106
aa(lp4756
I254
aI558
aa(lp4757
I516
aI674
aa(lp4758
I666
aI503
aa(lp4759
I325
aI314
aa(lp4760
I18
aI609
aa(lp4761
I104
aI241
aa(lp4762
I103
aI113
aa(lp4763
I99
aI182
aa(lp4764
I790
aI174
aa(lp4765
I37
aI341
aa(lp4766
I959
aI677
aa(lp4767
I866
aI781
aa(lp4768
I267
aI173
aa(lp4769
I26
aI126
aa(lp4770
I605
aI458
aa(lp4771
I579
aI665
aa(lp4772
I817
aI549
aa(lp4773
I499
aI361
aa(lp4774
I384
aI79
aa(lp4775
I290
aI187
aa(lp4776
I111
aI432
aa(lp4777
I608
aI286
aa(lp4778
I417
aI88
aa(lp4779
I718
aI214
aa(lp4780
I190
aI748
aa(lp4781
I300
aI220
aa(lp4782
I924
aI781
aa(lp4783
I10
aI457
aa(lp4784
I894
aI315
aa(lp4785
I84
aI495
aa(lp4786
I43
aI97
aa(lp4787
I831
aI94
aa(lp4788
I978
aI605
aa(lp4789
I615
aI97
aa(lp4790
I59
aI375
aa(lp4791
I53
aI421
aa(lp4792
I772
aI602
aa(lp4793
I4
aI638
aa(lp4794
I671
aI428
aa(lp4795
I313
aI678
aa(lp4796
I439
aI618
aa(lp4797
I285
aI396
aa(lp4798
I704
aI304
aa(lp4799
I159
aI111
aa(lp4800
I729
aI712
aa(lp4801
I810
aI30
aa(lp4802
I811
aI685
aa(lp4803
I639
aI414
aa(lp4804
I742
aI422
aa(lp4805
I763
aI695
aa(lp4806
I367
aI83
aa(lp4807
I667
aI127
aa(lp4808
I798
aI18
aa(lp4809
I660
aI691
aa(lp4810
I828
aI364
aa(lp4811
I131
aI103
aa(lp4812
I407
aI771
aa(lp4813
I118
aI664
aa(lp4814
I569
aI669
aa(lp4815
I318
aI213
aa(lp4816
I679
aI249
aa(lp4817
I577
aI578
aa(lp4818
I776
aI372
aa(lp4819
I868
aI12
aa(lp4820
I133
aI578
aa(lp4821
I593
aI509
aa(lp4822
I126
aI150
aa(lp4823
I525
aI171
aa(lp4824
I554
aI622
aa(lp4825
I482
aI568
aa(lp4826
I68
aI739
aa(lp4827
I64
aI621
aa(lp4828
I15
aI53
aa(lp4829
I826
aI687
aa(lp4830
I79
aI363
aa(lp4831
I944
aI151
aa(lp4832
I472
aI625
aa(lp4833
I437
aI601
aa(lp4834
I677
aI491
aa(lp4835
I453
aI540
aa(lp4836
I137
aI692
aa(lp4837
I280
aI320
aa(lp4838
I547
aI143
aa(lp4839
I162
aI228
aa(lp4840
I272
aI202
aa(lp4841
I737
aI304
aa(lp4842
I294
aI235
aa(lp4843
I891
aI521
aa(lp4844
I521
aI293
aa(lp4845
I164
aI581
aa(lp4846
I586
aI468
aa(lp4847
I430
aI313
aa(lp4848
I583
aI696
aa(lp4849
I796
aI472
aa(lp4850
I620
aI514
aa(lp4851
I695
aI779
aa(lp4852
I973
aI709
aa(lp4853
I954
aI127
aa(lp4854
I968
aI593
aa(lp4855
I256
aI259
aa(lp4856
I10
aI573
aa(lp4857
I190
aI317
aa(lp4858
I626
aI251
aa(lp4859
I248
aI386
aa(lp4860
I858
aI572
aa(lp4861
I491
aI353
aa(lp4862
I450
aI164
aa(lp4863
I345
aI85
aa(lp4864
I835
aI151
aa(lp4865
I182
aI585
aa(lp4866
I639
aI120
aa(lp4867
I677
aI432
aa(lp4868
I37
aI529
aa(lp4869
I572
aI493
aa(lp4870
I260
aI448
aa(lp4871
I204
aI318
aa(lp4872
I765
aI60
aa(lp4873
I29
aI530
aa(lp4874
I98
aI690
aa(lp4875
I522
aI206
aa(lp4876
I972
aI285
aa(lp4877
I236
aI464
aa(lp4878
I900
aI341
aa(lp4879
I218
aI443
aa(lp4880
I444
aI624
aa(lp4881
I735
aI323
aa(lp4882
I678
aI146
aa(lp4883
I779
aI363
aa(lp4884
I806
aI573
aa(lp4885
I747
aI436
aa(lp4886
I52
aI200
aa(lp4887
I415
aI208
aa(lp4888
I333
aI538
aa(lp4889
I744
aI467
aa(lp4890
I781
aI460
aa(lp4891
I826
aI579
aa(lp4892
I751
aI500
aa(lp4893
I312
aI306
aa(lp4894
I712
aI568
aa(lp4895
I224
aI334
aa(lp4896
I923
aI34
aa(lp4897
I662
aI88
aa(lp4898
I958
aI476
aa(lp4899
I901
aI149
aa(lp4900
I27
aI458
aa(lp4901
I778
aI85
aa(lp4902
I172
aI239
aa(lp4903
I690
aI459
aa(lp4904
I627
aI123
aa(lp4905
I188
aI677
aa(lp4906
I836
aI475
aa(lp4907
I86
aI589
aa(lp4908
I687
aI698
aa(lp4909
I880
aI106
aa(lp4910
I582
aI503
aa(lp4911
I582
aI601
aa(lp4912
I51
aI172
aa(lp4913
I934
aI67
aa(lp4914
I511
aI675
aa(lp4915
I613
aI553
aa(lp4916
I307
aI27
aa(lp4917
I729
aI18
aa(lp4918
I660
aI240
aa(lp4919
I13
aI141
aa(lp4920
I803
aI195
aa(lp4921
I780
aI486
aa(lp4922
I187
aI21
aa(lp4923
I534
aI504
aa(lp4924
I453
aI127
aa(lp4925
I651
aI359
aa(lp4926
I305
aI593
aa(lp4927
I174
aI381
aa(lp4928
I581
aI175
aa(lp4929
I601
aI618
aa(lp4930
I972
aI384
aa(lp4931
I882
aI696
aa(lp4932
I629
aI473
aa(lp4933
I957
aI674
aa(lp4934
I546
aI774
aa(lp4935
I787
aI91
aa(lp4936
I574
aI352
aa(lp4937
I413
aI134
aa(lp4938
I369
aI213
aa(lp4939
I640
aI725
aa(lp4940
I241
aI22
aa(lp4941
I136
aI452
aa(lp4942
I456
aI23
aa(lp4943
I180
aI315
aa(lp4944
I684
aI568
aa(lp4945
I126
aI394
aa(lp4946
I278
aI187
aa(lp4947
I454
aI297
aa(lp4948
I206
aI710
aa(lp4949
I531
aI615
aa(lp4950
I267
aI458
aa(lp4951
I8
aI699
aa(lp4952
I805
aI695
aa(lp4953
I546
aI699
aa(lp4954
I719
aI435
aa(lp4955
I84
aI367
aa(lp4956
I185
aI535
aa(lp4957
I511
aI676
aa(lp4958
I419
aI206
aa(lp4959
I406
aI541
aa(lp4960
I29
aI565
aa(lp4961
I759
aI478
aa(lp4962
I675
aI128
aa(lp4963
I139
aI545
aa(lp4964
I579
aI549
aa(lp4965
I514
aI148
aa(lp4966
I567
aI690
aa(lp4967
I473
aI344
aa(lp4968
I545
aI145
aa(lp4969
I19
aI561
aa(lp4970
I866
aI595
aa(lp4971
I353
aI16
aa(lp4972
I689
aI360
aa(lp4973
I120
aI423
aa(lp4974
I638
aI557
aa(lp4975
I879
aI586
aa(lp4976
I835
aI604
aa(lp4977
I76
aI8
aa(lp4978
I74
aI667
aa(lp4979
I451
aI395
aa(lp4980
I455
aI202
aa(lp4981
I307
aI696
aa(lp4982
I482
aI109
aa(lp4983
I3
aI12
aa(lp4984
I580
aI563
aa(lp4985
I558
aI229
aa(lp4986
I515
aI775
aa(lp4987
I577
aI518
aa(lp4988
I623
aI264
aa(lp4989
I445
aI649
aa(lp4990
I342
aI232
aa(lp4991
I954
aI686
aa(lp4992
I587
aI567
aa(lp4993
I666
aI710
aa(lp4994
I58
aI228
aa(lp4995
I542
aI462
aa(lp4996
I483
aI385
aa(lp4997
I54
aI229
aa(lp4998
I734
aI502
aa(lp4999
I892
aI221
aa(lp5000
I91
aI396
aa.